
Node1.elf:     file format elf32-avr

Sections:
Idx Name          Size      VMA       LMA       File off  Algn
  0 .data         00000316  00800100  00003882  00003916  2**0
                  CONTENTS, ALLOC, LOAD, DATA
  1 .text         00003882  00000000  00000000  00000094  2**1
                  CONTENTS, ALLOC, LOAD, READONLY, CODE
  2 .bss          0000004c  00800416  00800416  00003c2c  2**0
                  ALLOC
  3 .comment      0000005c  00000000  00000000  00003c2c  2**0
                  CONTENTS, READONLY
  4 .note.gnu.avr.deviceinfo 0000003c  00000000  00000000  00003c88  2**2
                  CONTENTS, READONLY
  5 .debug_aranges 00000258  00000000  00000000  00003cc4  2**0
                  CONTENTS, READONLY, DEBUGGING
  6 .debug_info   000050e5  00000000  00000000  00003f1c  2**0
                  CONTENTS, READONLY, DEBUGGING
  7 .debug_abbrev 00001506  00000000  00000000  00009001  2**0
                  CONTENTS, READONLY, DEBUGGING
  8 .debug_line   000026dd  00000000  00000000  0000a507  2**0
                  CONTENTS, READONLY, DEBUGGING
  9 .debug_frame  00000640  00000000  00000000  0000cbe4  2**2
                  CONTENTS, READONLY, DEBUGGING
 10 .debug_str    000008dc  00000000  00000000  0000d224  2**0
                  CONTENTS, READONLY, DEBUGGING
 11 .debug_loc    000027bc  00000000  00000000  0000db00  2**0
                  CONTENTS, READONLY, DEBUGGING
 12 .debug_ranges 00000218  00000000  00000000  000102bc  2**0
                  CONTENTS, READONLY, DEBUGGING

Disassembly of section .text:

00000000 <__vectors>:
       0:	0c 94 d1 01 	jmp	0x3a2	; 0x3a2 <__ctors_end>
       4:	0c 94 f9 02 	jmp	0x5f2	; 0x5f2 <__vector_1>
       8:	0c 94 ee 01 	jmp	0x3dc	; 0x3dc <__bad_interrupt>
       c:	0c 94 ee 01 	jmp	0x3dc	; 0x3dc <__bad_interrupt>
      10:	0c 94 ee 01 	jmp	0x3dc	; 0x3dc <__bad_interrupt>
      14:	0c 94 ee 01 	jmp	0x3dc	; 0x3dc <__bad_interrupt>
      18:	0c 94 ee 01 	jmp	0x3dc	; 0x3dc <__bad_interrupt>
      1c:	0c 94 ee 01 	jmp	0x3dc	; 0x3dc <__bad_interrupt>
      20:	0c 94 ee 01 	jmp	0x3dc	; 0x3dc <__bad_interrupt>
      24:	0c 94 ee 01 	jmp	0x3dc	; 0x3dc <__bad_interrupt>
      28:	0c 94 ee 01 	jmp	0x3dc	; 0x3dc <__bad_interrupt>
      2c:	0c 94 ee 01 	jmp	0x3dc	; 0x3dc <__bad_interrupt>
      30:	0c 94 ee 01 	jmp	0x3dc	; 0x3dc <__bad_interrupt>
      34:	0c 94 ee 01 	jmp	0x3dc	; 0x3dc <__bad_interrupt>
      38:	0c 94 ee 01 	jmp	0x3dc	; 0x3dc <__bad_interrupt>
      3c:	0c 94 ee 01 	jmp	0x3dc	; 0x3dc <__bad_interrupt>
      40:	0c 94 ee 01 	jmp	0x3dc	; 0x3dc <__bad_interrupt>
      44:	0c 94 ee 01 	jmp	0x3dc	; 0x3dc <__bad_interrupt>
      48:	0c 94 ee 01 	jmp	0x3dc	; 0x3dc <__bad_interrupt>
      4c:	0c 94 ee 01 	jmp	0x3dc	; 0x3dc <__bad_interrupt>
      50:	0c 94 ee 01 	jmp	0x3dc	; 0x3dc <__bad_interrupt>
      54:	0c 94 ee 01 	jmp	0x3dc	; 0x3dc <__bad_interrupt>
      58:	0c 94 ee 01 	jmp	0x3dc	; 0x3dc <__bad_interrupt>
      5c:	0c 94 ee 01 	jmp	0x3dc	; 0x3dc <__bad_interrupt>
      60:	0c 94 ee 01 	jmp	0x3dc	; 0x3dc <__bad_interrupt>
      64:	0c 94 ee 01 	jmp	0x3dc	; 0x3dc <__bad_interrupt>
      68:	0c 94 ee 01 	jmp	0x3dc	; 0x3dc <__bad_interrupt>
      6c:	0c 94 ee 01 	jmp	0x3dc	; 0x3dc <__bad_interrupt>
      70:	29 05       	cpc	r18, r9
      72:	48 06       	cpc	r4, r24
      74:	c5 06       	cpc	r12, r21
      76:	57 07       	cpc	r21, r23
      78:	be 07       	cpc	r27, r30
      7a:	2c 08       	sbc	r2, r12
      7c:	83 08       	sbc	r8, r3
      7e:	f0 08       	sbc	r15, r0
      80:	5c 09       	sbc	r21, r12
      82:	c0 09       	sbc	r28, r0
      84:	2b 0a       	sbc	r2, r27
      86:	82 0a       	sbc	r8, r18
      88:	ef 0a       	sbc	r14, r31
      8a:	53 0b       	sbc	r21, r19
      8c:	be 0b       	sbc	r27, r30
      8e:	2a 0c       	add	r2, r10
      90:	81 0c       	add	r8, r1
      92:	54 11       	cpse	r21, r4
      94:	54 11       	cpse	r21, r4
      96:	54 11       	cpse	r21, r4
      98:	54 11       	cpse	r21, r4
      9a:	54 11       	cpse	r21, r4
      9c:	54 11       	cpse	r21, r4
      9e:	e5 0c       	add	r14, r5
      a0:	a5 0d       	add	r26, r5
      a2:	65 0e       	add	r6, r21
      a4:	b7 0e       	add	r11, r23
      a6:	38 0f       	add	r19, r24
      a8:	e2 0f       	add	r30, r18

000000aa <__trampolines_end>:
	...
      b2:	00 06       	cpc	r0, r16
      b4:	5f 5f       	subi	r21, 0xFF	; 255
      b6:	06 00       	.word	0x0006	; ????
      b8:	00 00       	nop
      ba:	00 07       	cpc	r16, r16
      bc:	07 00       	.word	0x0007	; ????
      be:	07 07       	cpc	r16, r23
      c0:	00 00       	nop
      c2:	14 7f       	andi	r17, 0xF4	; 244
      c4:	7f 14       	cp	r7, r15
      c6:	7f 7f       	andi	r23, 0xFF	; 255
      c8:	14 00       	.word	0x0014	; ????
      ca:	24 2e       	mov	r2, r20
      cc:	6b 6b       	ori	r22, 0xBB	; 187
      ce:	3a 12       	cpse	r3, r26
      d0:	00 00       	nop
      d2:	46 66       	ori	r20, 0x66	; 102
      d4:	30 18       	sub	r3, r0
      d6:	0c 66       	ori	r16, 0x6C	; 108
      d8:	62 00       	.word	0x0062	; ????
      da:	30 7a       	andi	r19, 0xA0	; 160
      dc:	4f 5d       	subi	r20, 0xDF	; 223
      de:	37 7a       	andi	r19, 0xA7	; 167
      e0:	48 00       	.word	0x0048	; ????
      e2:	04 07       	cpc	r16, r20
      e4:	03 00       	.word	0x0003	; ????
      e6:	00 00       	nop
      e8:	00 00       	nop
      ea:	00 1c       	adc	r0, r0
      ec:	3e 63       	ori	r19, 0x3E	; 62
      ee:	41 00       	.word	0x0041	; ????
      f0:	00 00       	nop
      f2:	00 41       	sbci	r16, 0x10	; 16
      f4:	63 3e       	cpi	r22, 0xE3	; 227
      f6:	1c 00       	.word	0x001c	; ????
      f8:	00 00       	nop
      fa:	08 2a       	or	r0, r24
      fc:	3e 1c       	adc	r3, r14
      fe:	1c 3e       	cpi	r17, 0xEC	; 236
     100:	2a 08       	sbc	r2, r10
     102:	08 08       	sbc	r0, r8
     104:	3e 3e       	cpi	r19, 0xEE	; 238
     106:	08 08       	sbc	r0, r8
     108:	00 00       	nop
     10a:	00 a0       	ldd	r0, Z+32	; 0x20
     10c:	e0 60       	ori	r30, 0x00	; 0
     10e:	00 00       	nop
     110:	00 00       	nop
     112:	08 08       	sbc	r0, r8
     114:	08 08       	sbc	r0, r8
     116:	08 08       	sbc	r0, r8
     118:	00 00       	nop
     11a:	00 00       	nop
     11c:	60 60       	ori	r22, 0x00	; 0
     11e:	00 00       	nop
     120:	00 00       	nop
     122:	60 30       	cpi	r22, 0x00	; 0
     124:	18 0c       	add	r1, r8
     126:	06 03       	mulsu	r16, r22
     128:	01 00       	.word	0x0001	; ????
     12a:	3e 7f       	andi	r19, 0xFE	; 254
     12c:	59 4d       	sbci	r21, 0xD9	; 217
     12e:	7f 3e       	cpi	r23, 0xEF	; 239
     130:	00 00       	nop
     132:	42 42       	sbci	r20, 0x22	; 34
     134:	7f 7f       	andi	r23, 0xFF	; 255
     136:	40 40       	sbci	r20, 0x00	; 0
     138:	00 00       	nop
     13a:	62 73       	andi	r22, 0x32	; 50
     13c:	59 49       	sbci	r21, 0x99	; 153
     13e:	6f 66       	ori	r22, 0x6F	; 111
     140:	00 00       	nop
     142:	22 63       	ori	r18, 0x32	; 50
     144:	49 49       	sbci	r20, 0x99	; 153
     146:	7f 36       	cpi	r23, 0x6F	; 111
     148:	00 00       	nop
     14a:	18 1c       	adc	r1, r8
     14c:	16 13       	cpse	r17, r22
     14e:	7f 7f       	andi	r23, 0xFF	; 255
     150:	10 00       	.word	0x0010	; ????
     152:	27 67       	ori	r18, 0x77	; 119
     154:	45 45       	sbci	r20, 0x55	; 85
     156:	7d 39       	cpi	r23, 0x9D	; 157
     158:	00 00       	nop
     15a:	3c 7e       	andi	r19, 0xEC	; 236
     15c:	4b 49       	sbci	r20, 0x9B	; 155
     15e:	79 30       	cpi	r23, 0x09	; 9
     160:	00 00       	nop
     162:	03 63       	ori	r16, 0x33	; 51
     164:	71 19       	sub	r23, r1
     166:	0f 07       	cpc	r16, r31
     168:	00 00       	nop
     16a:	36 7f       	andi	r19, 0xF6	; 246
     16c:	49 49       	sbci	r20, 0x99	; 153
     16e:	7f 36       	cpi	r23, 0x6F	; 111
     170:	00 00       	nop
     172:	06 4f       	sbci	r16, 0xF6	; 246
     174:	49 69       	ori	r20, 0x99	; 153
     176:	3f 1e       	adc	r3, r31
     178:	00 00       	nop
     17a:	00 00       	nop
     17c:	6c 6c       	ori	r22, 0xCC	; 204
     17e:	00 00       	nop
     180:	00 00       	nop
     182:	00 a0       	ldd	r0, Z+32	; 0x20
     184:	ec 6c       	ori	r30, 0xCC	; 204
     186:	00 00       	nop
     188:	00 00       	nop
     18a:	08 1c       	adc	r0, r8
     18c:	36 63       	ori	r19, 0x36	; 54
     18e:	41 00       	.word	0x0041	; ????
     190:	00 00       	nop
     192:	14 14       	cp	r1, r4
     194:	14 14       	cp	r1, r4
     196:	14 14       	cp	r1, r4
     198:	00 00       	nop
     19a:	00 41       	sbci	r16, 0x10	; 16
     19c:	63 36       	cpi	r22, 0x63	; 99
     19e:	1c 08       	sbc	r1, r12
     1a0:	00 00       	nop
     1a2:	02 03       	mulsu	r16, r18
     1a4:	51 59       	subi	r21, 0x91	; 145
     1a6:	0f 06       	cpc	r0, r31
     1a8:	00 00       	nop
     1aa:	3e 7f       	andi	r19, 0xFE	; 254
     1ac:	41 5d       	subi	r20, 0xD1	; 209
     1ae:	5d 1f       	adc	r21, r29
     1b0:	1e 00       	.word	0x001e	; ????
     1b2:	7c 7e       	andi	r23, 0xEC	; 236
     1b4:	13 13       	cpse	r17, r19
     1b6:	7e 7c       	andi	r23, 0xCE	; 206
     1b8:	00 00       	nop
     1ba:	41 7f       	andi	r20, 0xF1	; 241
     1bc:	7f 49       	sbci	r23, 0x9F	; 159
     1be:	49 7f       	andi	r20, 0xF9	; 249
     1c0:	36 00       	.word	0x0036	; ????
     1c2:	1c 3e       	cpi	r17, 0xEC	; 236
     1c4:	63 41       	sbci	r22, 0x13	; 19
     1c6:	41 63       	ori	r20, 0x31	; 49
     1c8:	22 00       	.word	0x0022	; ????
     1ca:	41 7f       	andi	r20, 0xF1	; 241
     1cc:	7f 41       	sbci	r23, 0x1F	; 31
     1ce:	63 7f       	andi	r22, 0xF3	; 243
     1d0:	1c 00       	.word	0x001c	; ????
     1d2:	41 7f       	andi	r20, 0xF1	; 241
     1d4:	7f 49       	sbci	r23, 0x9F	; 159
     1d6:	5d 41       	sbci	r21, 0x1D	; 29
     1d8:	63 00       	.word	0x0063	; ????
     1da:	41 7f       	andi	r20, 0xF1	; 241
     1dc:	7f 49       	sbci	r23, 0x9F	; 159
     1de:	1d 01       	movw	r2, r26
     1e0:	03 00       	.word	0x0003	; ????
     1e2:	1c 3e       	cpi	r17, 0xEC	; 236
     1e4:	63 41       	sbci	r22, 0x13	; 19
     1e6:	51 73       	andi	r21, 0x31	; 49
     1e8:	72 00       	.word	0x0072	; ????
     1ea:	7f 7f       	andi	r23, 0xFF	; 255
     1ec:	08 08       	sbc	r0, r8
     1ee:	7f 7f       	andi	r23, 0xFF	; 255
     1f0:	00 00       	nop
     1f2:	00 41       	sbci	r16, 0x10	; 16
     1f4:	7f 7f       	andi	r23, 0xFF	; 255
     1f6:	41 00       	.word	0x0041	; ????
     1f8:	00 00       	nop
     1fa:	30 70       	andi	r19, 0x00	; 0
     1fc:	40 41       	sbci	r20, 0x10	; 16
     1fe:	7f 3f       	cpi	r23, 0xFF	; 255
     200:	01 00       	.word	0x0001	; ????
     202:	41 7f       	andi	r20, 0xF1	; 241
     204:	7f 08       	sbc	r7, r15
     206:	1c 77       	andi	r17, 0x7C	; 124
     208:	63 00       	.word	0x0063	; ????
     20a:	41 7f       	andi	r20, 0xF1	; 241
     20c:	7f 41       	sbci	r23, 0x1F	; 31
     20e:	40 60       	ori	r20, 0x00	; 0
     210:	70 00       	.word	0x0070	; ????
     212:	7f 7f       	andi	r23, 0xFF	; 255
     214:	06 0c       	add	r0, r6
     216:	06 7f       	andi	r16, 0xF6	; 246
     218:	7f 00       	.word	0x007f	; ????
     21a:	7f 7f       	andi	r23, 0xFF	; 255
     21c:	06 0c       	add	r0, r6
     21e:	18 7f       	andi	r17, 0xF8	; 248
     220:	7f 00       	.word	0x007f	; ????
     222:	1c 3e       	cpi	r17, 0xEC	; 236
     224:	63 41       	sbci	r22, 0x13	; 19
     226:	63 3e       	cpi	r22, 0xE3	; 227
     228:	1c 00       	.word	0x001c	; ????
     22a:	41 7f       	andi	r20, 0xF1	; 241
     22c:	7f 49       	sbci	r23, 0x9F	; 159
     22e:	09 0f       	add	r16, r25
     230:	06 00       	.word	0x0006	; ????
     232:	1e 3f       	cpi	r17, 0xFE	; 254
     234:	21 71       	andi	r18, 0x11	; 17
     236:	7f 5e       	subi	r23, 0xEF	; 239
     238:	00 00       	nop
     23a:	41 7f       	andi	r20, 0xF1	; 241
     23c:	7f 19       	sub	r23, r15
     23e:	39 6f       	ori	r19, 0xF9	; 249
     240:	46 00       	.word	0x0046	; ????
     242:	26 67       	ori	r18, 0x76	; 118
     244:	4d 59       	subi	r20, 0x9D	; 157
     246:	7b 32       	cpi	r23, 0x2B	; 43
     248:	00 00       	nop
     24a:	03 41       	sbci	r16, 0x13	; 19
     24c:	7f 7f       	andi	r23, 0xFF	; 255
     24e:	41 03       	mulsu	r20, r17
     250:	00 00       	nop
     252:	7f 7f       	andi	r23, 0xFF	; 255
     254:	40 40       	sbci	r20, 0x00	; 0
     256:	7f 7f       	andi	r23, 0xFF	; 255
     258:	00 00       	nop
     25a:	1f 3f       	cpi	r17, 0xFF	; 255
     25c:	60 60       	ori	r22, 0x00	; 0
     25e:	3f 1f       	adc	r19, r31
     260:	00 00       	nop
     262:	7f 7f       	andi	r23, 0xFF	; 255
     264:	30 18       	sub	r3, r0
     266:	30 7f       	andi	r19, 0xF0	; 240
     268:	7f 00       	.word	0x007f	; ????
     26a:	63 77       	andi	r22, 0x73	; 115
     26c:	1c 08       	sbc	r1, r12
     26e:	1c 77       	andi	r17, 0x7C	; 124
     270:	63 00       	.word	0x0063	; ????
     272:	07 4f       	sbci	r16, 0xF7	; 247
     274:	78 78       	andi	r23, 0x88	; 136
     276:	4f 07       	cpc	r20, r31
     278:	00 00       	nop
     27a:	67 73       	andi	r22, 0x37	; 55
     27c:	59 4d       	sbci	r21, 0xD9	; 217
     27e:	47 63       	ori	r20, 0x37	; 55
     280:	71 00       	.word	0x0071	; ????
     282:	00 7f       	andi	r16, 0xF0	; 240
     284:	7f 41       	sbci	r23, 0x1F	; 31
     286:	41 00       	.word	0x0041	; ????
     288:	00 00       	nop
     28a:	00 00       	nop
     28c:	00 00       	nop
     28e:	06 06       	cpc	r0, r22
     290:	02 02       	muls	r16, r18
     292:	00 00       	nop
     294:	00 00       	nop
     296:	0e 06       	cpc	r0, r30
     298:	06 06       	cpc	r0, r22
     29a:	00 02       	muls	r16, r16
     29c:	02 02       	muls	r16, r18
     29e:	02 02       	muls	r16, r18
     2a0:	02 00       	.word	0x0002	; ????
     2a2:	06 06       	cpc	r0, r22
     2a4:	06 06       	cpc	r0, r22
     2a6:	06 06       	cpc	r0, r22
     2a8:	06 06       	cpc	r0, r22
     2aa:	06 06       	cpc	r0, r22
     2ac:	06 0e       	add	r0, r22
     2ae:	00 00       	nop
     2b0:	00 00       	nop
     2b2:	20 74       	andi	r18, 0x40	; 64
     2b4:	54 54       	subi	r21, 0x44	; 68
     2b6:	3c 78       	andi	r19, 0x8C	; 140
     2b8:	40 00       	.word	0x0040	; ????
     2ba:	41 3f       	cpi	r20, 0xF1	; 241
     2bc:	7f 44       	sbci	r23, 0x4F	; 79
     2be:	44 7c       	andi	r20, 0xC4	; 196
     2c0:	38 00       	.word	0x0038	; ????
     2c2:	38 7c       	andi	r19, 0xC8	; 200
     2c4:	44 44       	sbci	r20, 0x44	; 68
     2c6:	6c 28       	or	r6, r12
     2c8:	00 00       	nop
     2ca:	30 78       	andi	r19, 0x80	; 128
     2cc:	48 49       	sbci	r20, 0x98	; 152
     2ce:	3f 7f       	andi	r19, 0xFF	; 255
     2d0:	40 00       	.word	0x0040	; ????
     2d2:	38 7c       	andi	r19, 0xC8	; 200
     2d4:	54 54       	subi	r21, 0x44	; 68
     2d6:	5c 18       	sub	r5, r12
     2d8:	00 00       	nop
     2da:	48 7e       	andi	r20, 0xE8	; 232
     2dc:	7f 49       	sbci	r23, 0x9F	; 159
     2de:	03 02       	muls	r16, r19
     2e0:	00 00       	nop
     2e2:	98 bc       	out	0x28, r9	; 40
     2e4:	a4 a4       	ldd	r10, Z+44	; 0x2c
     2e6:	f8 7c       	andi	r31, 0xC8	; 200
     2e8:	04 00       	.word	0x0004	; ????
     2ea:	41 7f       	andi	r20, 0xF1	; 241
     2ec:	7f 08       	sbc	r7, r15
     2ee:	04 7c       	andi	r16, 0xC4	; 196
     2f0:	78 00       	.word	0x0078	; ????
     2f2:	00 44       	sbci	r16, 0x40	; 64
     2f4:	7d 7d       	andi	r23, 0xDD	; 221
     2f6:	40 00       	.word	0x0040	; ????
     2f8:	00 00       	nop
     2fa:	40 c4       	rjmp	.+2176   	; 0xb7c <init_menu+0x178>
     2fc:	84 fd       	sbrc	r24, 4
     2fe:	7d 00       	.word	0x007d	; ????
     300:	00 00       	nop
     302:	41 7f       	andi	r20, 0xF1	; 241
     304:	7f 10       	cpse	r7, r15
     306:	38 6c       	ori	r19, 0xC8	; 200
     308:	44 00       	.word	0x0044	; ????
     30a:	00 41       	sbci	r16, 0x10	; 16
     30c:	7f 7f       	andi	r23, 0xFF	; 255
     30e:	40 00       	.word	0x0040	; ????
     310:	00 00       	nop
     312:	7c 7c       	andi	r23, 0xCC	; 204
     314:	0c 18       	sub	r0, r12
     316:	0c 7c       	andi	r16, 0xCC	; 204
     318:	78 00       	.word	0x0078	; ????
     31a:	7c 7c       	andi	r23, 0xCC	; 204
     31c:	04 04       	cpc	r0, r4
     31e:	7c 78       	andi	r23, 0x8C	; 140
     320:	00 00       	nop
     322:	38 7c       	andi	r19, 0xC8	; 200
     324:	44 44       	sbci	r20, 0x44	; 68
     326:	7c 38       	cpi	r23, 0x8C	; 140
     328:	00 00       	nop
     32a:	84 fc       	sbrc	r8, 4
     32c:	f8 a4       	ldd	r15, Y+40	; 0x28
     32e:	24 3c       	cpi	r18, 0xC4	; 196
     330:	18 00       	.word	0x0018	; ????
     332:	18 3c       	cpi	r17, 0xC8	; 200
     334:	24 a4       	ldd	r2, Z+44	; 0x2c
     336:	f8 fc       	.word	0xfcf8	; ????
     338:	84 00       	.word	0x0084	; ????
     33a:	44 7c       	andi	r20, 0xC4	; 196
     33c:	78 44       	sbci	r23, 0x48	; 72
     33e:	1c 18       	sub	r1, r12
     340:	00 00       	nop
     342:	48 5c       	subi	r20, 0xC8	; 200
     344:	54 54       	subi	r21, 0x44	; 68
     346:	74 24       	eor	r7, r4
     348:	00 00       	nop
     34a:	00 04       	cpc	r0, r0
     34c:	3e 7f       	andi	r19, 0xFE	; 254
     34e:	44 24       	eor	r4, r4
     350:	00 00       	nop
     352:	3c 7c       	andi	r19, 0xCC	; 204
     354:	40 40       	sbci	r20, 0x00	; 0
     356:	3c 7c       	andi	r19, 0xCC	; 204
     358:	40 00       	.word	0x0040	; ????
     35a:	1c 3c       	cpi	r17, 0xCC	; 204
     35c:	60 60       	ori	r22, 0x00	; 0
     35e:	3c 1c       	adc	r3, r12
     360:	00 00       	nop
     362:	3c 7c       	andi	r19, 0xCC	; 204
     364:	60 30       	cpi	r22, 0x00	; 0
     366:	60 7c       	andi	r22, 0xC0	; 192
     368:	3c 00       	.word	0x003c	; ????
     36a:	44 6c       	ori	r20, 0xC4	; 196
     36c:	38 10       	cpse	r3, r8
     36e:	38 6c       	ori	r19, 0xC8	; 200
     370:	44 00       	.word	0x0044	; ????
     372:	9c bc       	out	0x2c, r9	; 44
     374:	a0 a0       	ldd	r10, Z+32	; 0x20
     376:	fc 7c       	andi	r31, 0xCC	; 204
     378:	00 00       	nop
     37a:	4c 64       	ori	r20, 0x4C	; 76
     37c:	74 5c       	subi	r23, 0xC4	; 196
     37e:	4c 64       	ori	r20, 0x4C	; 76
     380:	00 00       	nop
     382:	08 08       	sbc	r0, r8
     384:	3e 77       	andi	r19, 0x7E	; 126
     386:	41 41       	sbci	r20, 0x11	; 17
     388:	00 00       	nop
     38a:	00 00       	nop
     38c:	00 77       	andi	r16, 0x70	; 112
     38e:	77 00       	.word	0x0077	; ????
     390:	00 00       	nop
     392:	00 1e       	adc	r0, r16
     394:	3f fc       	.word	0xfc3f	; ????
     396:	fc 3f       	cpi	r31, 0xFC	; 252
     398:	1e 00       	.word	0x001e	; ????
     39a:	38 7c       	andi	r19, 0xC8	; 200
     39c:	7c 7c       	andi	r23, 0xCC	; 204
     39e:	7c 38       	cpi	r23, 0x8C	; 140
	...

000003a2 <__ctors_end>:
     3a2:	11 24       	eor	r1, r1
     3a4:	1f be       	out	0x3f, r1	; 63
     3a6:	cf ef       	ldi	r28, 0xFF	; 255
     3a8:	d4 e0       	ldi	r29, 0x04	; 4
     3aa:	de bf       	out	0x3e, r29	; 62
     3ac:	cd bf       	out	0x3d, r28	; 61

000003ae <__do_copy_data>:
     3ae:	14 e0       	ldi	r17, 0x04	; 4
     3b0:	a0 e0       	ldi	r26, 0x00	; 0
     3b2:	b1 e0       	ldi	r27, 0x01	; 1
     3b4:	e2 e8       	ldi	r30, 0x82	; 130
     3b6:	f8 e3       	ldi	r31, 0x38	; 56
     3b8:	02 c0       	rjmp	.+4      	; 0x3be <__do_copy_data+0x10>
     3ba:	05 90       	lpm	r0, Z+
     3bc:	0d 92       	st	X+, r0
     3be:	a6 31       	cpi	r26, 0x16	; 22
     3c0:	b1 07       	cpc	r27, r17
     3c2:	d9 f7       	brne	.-10     	; 0x3ba <__do_copy_data+0xc>

000003c4 <__do_clear_bss>:
     3c4:	24 e0       	ldi	r18, 0x04	; 4
     3c6:	a6 e1       	ldi	r26, 0x16	; 22
     3c8:	b4 e0       	ldi	r27, 0x04	; 4
     3ca:	01 c0       	rjmp	.+2      	; 0x3ce <.do_clear_bss_start>

000003cc <.do_clear_bss_loop>:
     3cc:	1d 92       	st	X+, r1

000003ce <.do_clear_bss_start>:
     3ce:	a2 36       	cpi	r26, 0x62	; 98
     3d0:	b2 07       	cpc	r27, r18
     3d2:	e1 f7       	brne	.-8      	; 0x3cc <.do_clear_bss_loop>
     3d4:	0e 94 ef 03 	call	0x7de	; 0x7de <main>
     3d8:	0c 94 3f 1c 	jmp	0x387e	; 0x387e <_exit>

000003dc <__bad_interrupt>:
     3dc:	0c 94 00 00 	jmp	0	; 0x0 <__vectors>

000003e0 <ADC_init>:
#include "setup.h"
#include <util/delay.h>

int ADC_init(void) {
	//Enable the external memory interface/4 bits address, page 26-35 in Atmega162 data sheet
	MCUCR |= (1<<SRE);
     3e0:	85 b7       	in	r24, 0x35	; 53
     3e2:	80 68       	ori	r24, 0x80	; 128
     3e4:	85 bf       	out	0x35, r24	; 53
	SFIOR |= (1<<XMM2);
     3e6:	80 b7       	in	r24, 0x30	; 48
     3e8:	80 62       	ori	r24, 0x20	; 32
     3ea:	80 bf       	out	0x30, r24	; 48
	
	//Set the interrupt pin to input, INT0, PD2
	DDRB &= ~(1<<PIND2);
     3ec:	ba 98       	cbi	0x17, 2	; 23
	
	return 0;
}
     3ee:	80 e0       	ldi	r24, 0x00	; 0
     3f0:	90 e0       	ldi	r25, 0x00	; 0
     3f2:	08 95       	ret

000003f4 <ADC_read>:
uint8_t ADC_read(uint8_t channel) {
	//Address for the ADC, used as chip select
	volatile char *adc = (char *) 0x1400;
	
	//checks if the channel is valid, we can only use channel 1-4.
	if(channel > 3) {return 0;}
     3f4:	84 30       	cpi	r24, 0x04	; 4
     3f6:	48 f4       	brcc	.+18     	; 0x40a <__LOCK_REGION_LENGTH__+0xa>
	
	//Choose channel in ADC, lets us chose what device we want to read
	*adc = 0x04 | channel;
     3f8:	84 60       	ori	r24, 0x04	; 4
     3fa:	e0 e0       	ldi	r30, 0x00	; 0
     3fc:	f4 e1       	ldi	r31, 0x14	; 20
     3fe:	80 83       	st	Z, r24
	#else
		//round up by default
		__ticks_dc = (uint32_t)(ceil(fabs(__tmp)));
	#endif

	__builtin_avr_delay_cycles(__ticks_dc);
     400:	84 ea       	ldi	r24, 0xA4	; 164
     402:	8a 95       	dec	r24
     404:	f1 f7       	brne	.-4      	; 0x402 <__LOCK_REGION_LENGTH__+0x2>

	//delay to let the adc finish its conversion
	_delay_us(100);
	return *adc;
     406:	80 81       	ld	r24, Z
     408:	08 95       	ret
uint8_t ADC_read(uint8_t channel) {
	//Address for the ADC, used as chip select
	volatile char *adc = (char *) 0x1400;
	
	//checks if the channel is valid, we can only use channel 1-4.
	if(channel > 3) {return 0;}
     40a:	80 e0       	ldi	r24, 0x00	; 0
	*adc = 0x04 | channel;

	//delay to let the adc finish its conversion
	_delay_us(100);
	return *adc;
     40c:	08 95       	ret

0000040e <CAN_init>:
uint8_t rx_flag = 0;

//function to initiate can, and set it in the right mode
int CAN_init(void) {
	//Enter config mode
	MCP_init();
     40e:	0e 94 a7 04 	call	0x94e	; 0x94e <MCP_init>
	
	//Turn masks/filters off, rollover disabled
	MCP_bit_modify(MCP_RXB0CTRL, MCP_FILTER_OFF, 0b01101100);
     412:	4c e6       	ldi	r20, 0x6C	; 108
     414:	60 e6       	ldi	r22, 0x60	; 96
     416:	80 e6       	ldi	r24, 0x60	; 96
     418:	0e 94 e4 04 	call	0x9c8	; 0x9c8 <MCP_bit_modify>
	//Enable interrupt when message is received
	MCP_bit_modify(MCP_CANINTE, MCP_RX_INT, 0x01);
     41c:	41 e0       	ldi	r20, 0x01	; 1
     41e:	63 e0       	ldi	r22, 0x03	; 3
     420:	8b e2       	ldi	r24, 0x2B	; 43
     422:	0e 94 e4 04 	call	0x9c8	; 0x9c8 <MCP_bit_modify>
	
	//Enable normal mode
	MCP_bit_modify(MCP_CANCTRL, MODE_MASK, MODE_NORMAL);
     426:	40 e0       	ldi	r20, 0x00	; 0
     428:	60 ee       	ldi	r22, 0xE0	; 224
     42a:	8f e0       	ldi	r24, 0x0F	; 15
     42c:	0e 94 e4 04 	call	0x9c8	; 0x9c8 <MCP_bit_modify>
	
	//check if can is in normal mode, for debugging
	uint8_t value = MCP_read(MCP_CANSTAT);
     430:	8e e0       	ldi	r24, 0x0E	; 14
     432:	0e 94 90 04 	call	0x920	; 0x920 <MCP_read>
	if ((value & MODE_MASK) != MODE_NORMAL){
     436:	80 7e       	andi	r24, 0xE0	; 224
     438:	59 f0       	breq	.+22     	; 0x450 <CAN_init+0x42>
		printf("ERROR..ERROR...NORMAL MODE NOT WORKING");
     43a:	83 e6       	ldi	r24, 0x63	; 99
     43c:	91 e0       	ldi	r25, 0x01	; 1
     43e:	9f 93       	push	r25
     440:	8f 93       	push	r24
     442:	0e 94 0d 18 	call	0x301a	; 0x301a <printf>
		return 1;
     446:	0f 90       	pop	r0
     448:	0f 90       	pop	r0
     44a:	81 e0       	ldi	r24, 0x01	; 1
     44c:	90 e0       	ldi	r25, 0x00	; 0
     44e:	08 95       	ret
	}
	
	

	return 0;
     450:	80 e0       	ldi	r24, 0x00	; 0
     452:	90 e0       	ldi	r25, 0x00	; 0
}
     454:	08 95       	ret

00000456 <CAN_error>:
}


//Function that checks for error
int CAN_error(void) {
	uint8_t error = MCP_read(MCP_TXB0CTRL);
     456:	80 e3       	ldi	r24, 0x30	; 48
     458:	0e 94 90 04 	call	0x920	; 0x920 <MCP_read>
	
	//Transmission error detected
	if (test_bit(error, 4)) return -1;
     45c:	84 fd       	sbrc	r24, 4
     45e:	05 c0       	rjmp	.+10     	; 0x46a <CAN_error+0x14>
	
	//Message lost arbitration
	if (test_bit(error, 5)) return -2;
     460:	85 fd       	sbrc	r24, 5
     462:	06 c0       	rjmp	.+12     	; 0x470 <CAN_error+0x1a>
	
	return 0;
     464:	80 e0       	ldi	r24, 0x00	; 0
     466:	90 e0       	ldi	r25, 0x00	; 0
     468:	08 95       	ret
//Function that checks for error
int CAN_error(void) {
	uint8_t error = MCP_read(MCP_TXB0CTRL);
	
	//Transmission error detected
	if (test_bit(error, 4)) return -1;
     46a:	8f ef       	ldi	r24, 0xFF	; 255
     46c:	9f ef       	ldi	r25, 0xFF	; 255
     46e:	08 95       	ret
	
	//Message lost arbitration
	if (test_bit(error, 5)) return -2;
     470:	8e ef       	ldi	r24, 0xFE	; 254
     472:	9f ef       	ldi	r25, 0xFF	; 255
	
	return 0;
}
     474:	08 95       	ret

00000476 <CAN_transmit_complete>:


int CAN_transmit_complete(void) {
	//Check if TX buffer is not pending transmission (TXREQ = 0)
	if (test_bit(MCP_read(MCP_TXB0CTRL), 3)) {
     476:	80 e3       	ldi	r24, 0x30	; 48
     478:	0e 94 90 04 	call	0x920	; 0x920 <MCP_read>
     47c:	86 95       	lsr	r24
     47e:	86 95       	lsr	r24
     480:	86 95       	lsr	r24
     482:	91 e0       	ldi	r25, 0x01	; 1
     484:	89 27       	eor	r24, r25
		return 0;
		} else {
		return 1;
	}
}
     486:	81 70       	andi	r24, 0x01	; 1
     488:	90 e0       	ldi	r25, 0x00	; 0
     48a:	08 95       	ret

0000048c <CAN_message_send>:
	return 0;
}


//Function to send CAN messages, sets, id, length and puts data into data 1-8
int CAN_message_send(can_msg* message) {
     48c:	0f 93       	push	r16
     48e:	1f 93       	push	r17
     490:	cf 93       	push	r28
     492:	8c 01       	movw	r16, r24
	uint8_t i;
	
	//Check if there is no pending transmission
	if (CAN_transmit_complete()) {
     494:	0e 94 3b 02 	call	0x476	; 0x476 <CAN_transmit_complete>
     498:	89 2b       	or	r24, r25
     49a:	09 f4       	brne	.+2      	; 0x49e <CAN_message_send+0x12>
     49c:	3f c0       	rjmp	.+126    	; 0x51c <__stack+0x1d>
		
		//Set the message id
		MCP_write(MCP_TXB0SIDH, (int8_t)(message->id >> 3));
     49e:	f8 01       	movw	r30, r16
     4a0:	60 81       	ld	r22, Z
     4a2:	71 81       	ldd	r23, Z+1	; 0x01
     4a4:	76 95       	lsr	r23
     4a6:	67 95       	ror	r22
     4a8:	76 95       	lsr	r23
     4aa:	67 95       	ror	r22
     4ac:	76 95       	lsr	r23
     4ae:	67 95       	ror	r22
     4b0:	81 e3       	ldi	r24, 0x31	; 49
     4b2:	0e 94 bd 04 	call	0x97a	; 0x97a <MCP_write>
		MCP_write(MCP_TXB0SIDL, (int8_t)(message->id << 5));
     4b6:	f8 01       	movw	r30, r16
     4b8:	60 81       	ld	r22, Z
     4ba:	71 81       	ldd	r23, Z+1	; 0x01
     4bc:	66 0f       	add	r22, r22
     4be:	77 1f       	adc	r23, r23
     4c0:	62 95       	swap	r22
     4c2:	72 95       	swap	r23
     4c4:	70 7f       	andi	r23, 0xF0	; 240
     4c6:	76 27       	eor	r23, r22
     4c8:	60 7f       	andi	r22, 0xF0	; 240
     4ca:	76 27       	eor	r23, r22
     4cc:	82 e3       	ldi	r24, 0x32	; 50
     4ce:	0e 94 bd 04 	call	0x97a	; 0x97a <MCP_write>
		MCP_write(MCP_TXB0EID8, 0);
     4d2:	60 e0       	ldi	r22, 0x00	; 0
     4d4:	83 e4       	ldi	r24, 0x43	; 67
     4d6:	0e 94 bd 04 	call	0x97a	; 0x97a <MCP_write>
		MCP_write(MCP_TXB0EID0, 0);
     4da:	60 e0       	ldi	r22, 0x00	; 0
     4dc:	84 e4       	ldi	r24, 0x44	; 68
     4de:	0e 94 bd 04 	call	0x97a	; 0x97a <MCP_write>
		
		//Set data length
		MCP_write(MCP_TXB0DLC, message->length);
     4e2:	f8 01       	movw	r30, r16
     4e4:	62 81       	ldd	r22, Z+2	; 0x02
     4e6:	85 e3       	ldi	r24, 0x35	; 53
     4e8:	0e 94 bd 04 	call	0x97a	; 0x97a <MCP_write>

		//Set data bytes (max. 8 bytes, 0-7)
		for (i = 0; i < message->length; i++) {
     4ec:	f8 01       	movw	r30, r16
     4ee:	82 81       	ldd	r24, Z+2	; 0x02
     4f0:	88 23       	and	r24, r24
     4f2:	71 f0       	breq	.+28     	; 0x510 <__stack+0x11>
     4f4:	c0 e0       	ldi	r28, 0x00	; 0
			MCP_write(MCP_TXB0D0 + i, message->data[i]);
     4f6:	f8 01       	movw	r30, r16
     4f8:	ec 0f       	add	r30, r28
     4fa:	f1 1d       	adc	r31, r1
     4fc:	63 81       	ldd	r22, Z+3	; 0x03
     4fe:	86 e3       	ldi	r24, 0x36	; 54
     500:	8c 0f       	add	r24, r28
     502:	0e 94 bd 04 	call	0x97a	; 0x97a <MCP_write>
		
		//Set data length
		MCP_write(MCP_TXB0DLC, message->length);

		//Set data bytes (max. 8 bytes, 0-7)
		for (i = 0; i < message->length; i++) {
     506:	cf 5f       	subi	r28, 0xFF	; 255
     508:	f8 01       	movw	r30, r16
     50a:	82 81       	ldd	r24, Z+2	; 0x02
     50c:	c8 17       	cp	r28, r24
     50e:	98 f3       	brcs	.-26     	; 0x4f6 <CAN_message_send+0x6a>
			MCP_write(MCP_TXB0D0 + i, message->data[i]);
		}
		
		//Request to send via TX0
		MCP_request_to_send(MCP_RTS_TX0);
     510:	81 e8       	ldi	r24, 0x81	; 129
     512:	0e 94 d5 04 	call	0x9aa	; 0x9aa <MCP_request_to_send>
		if (CAN_error() < 0) {
			return -1;
		}
	}
	
	return 0;
     516:	80 e0       	ldi	r24, 0x00	; 0
     518:	90 e0       	ldi	r25, 0x00	; 0
     51a:	07 c0       	rjmp	.+14     	; 0x52a <__stack+0x2b>
		
		//Request to send via TX0
		MCP_request_to_send(MCP_RTS_TX0);
		//return error if it does not work
		} else {
		if (CAN_error() < 0) {
     51c:	0e 94 2b 02 	call	0x456	; 0x456 <CAN_error>
     520:	99 0f       	add	r25, r25
     522:	99 0b       	sbc	r25, r25
     524:	89 2f       	mov	r24, r25
     526:	99 0f       	add	r25, r25
     528:	99 0b       	sbc	r25, r25
			return -1;
		}
	}
	
	return 0;
}
     52a:	cf 91       	pop	r28
     52c:	1f 91       	pop	r17
     52e:	0f 91       	pop	r16
     530:	08 95       	ret

00000532 <CAN_data_receive>:
}



//function that makes it possible to receive can messages
can_msg CAN_data_receive(void) {
     532:	9f 92       	push	r9
     534:	af 92       	push	r10
     536:	bf 92       	push	r11
     538:	cf 92       	push	r12
     53a:	df 92       	push	r13
     53c:	ef 92       	push	r14
     53e:	ff 92       	push	r15
     540:	0f 93       	push	r16
     542:	1f 93       	push	r17
     544:	cf 93       	push	r28
     546:	df 93       	push	r29
     548:	cd b7       	in	r28, 0x3d	; 61
     54a:	de b7       	in	r29, 0x3e	; 62
     54c:	2b 97       	sbiw	r28, 0x0b	; 11
     54e:	0f b6       	in	r0, 0x3f	; 63
     550:	f8 94       	cli
     552:	de bf       	out	0x3e, r29	; 62
     554:	0f be       	out	0x3f, r0	; 63
     556:	cd bf       	out	0x3d, r28	; 61
     558:	6c 01       	movw	r12, r24
	uint8_t i;
	can_msg message;
	
	//Check if RX buffer has a message
	if (rx_flag == 1) {
     55a:	80 91 16 04 	lds	r24, 0x0416	; 0x800416 <__data_end>
     55e:	81 30       	cpi	r24, 0x01	; 1
     560:	51 f5       	brne	.+84     	; 0x5b6 <CAN_data_receive+0x84>
		
		//Get message id
		message.id  = (MCP_read(MCP_RXB0SIDH) << 3) | (MCP_read(MCP_RXB0SIDL) >> 5);
     562:	81 e6       	ldi	r24, 0x61	; 97
     564:	0e 94 90 04 	call	0x920	; 0x920 <MCP_read>
     568:	a8 2e       	mov	r10, r24
     56a:	82 e6       	ldi	r24, 0x62	; 98
     56c:	0e 94 90 04 	call	0x920	; 0x920 <MCP_read>
     570:	b1 2c       	mov	r11, r1
     572:	aa 0c       	add	r10, r10
     574:	bb 1c       	adc	r11, r11
     576:	aa 0c       	add	r10, r10
     578:	bb 1c       	adc	r11, r11
     57a:	aa 0c       	add	r10, r10
     57c:	bb 1c       	adc	r11, r11
     57e:	82 95       	swap	r24
     580:	86 95       	lsr	r24
     582:	87 70       	andi	r24, 0x07	; 7
     584:	a8 2a       	or	r10, r24
		
		//Get message length
		message.length = (MCP_read(MCP_RXB0CTRL+5) & 0x0F);
     586:	85 e6       	ldi	r24, 0x65	; 101
     588:	0e 94 90 04 	call	0x920	; 0x920 <MCP_read>
     58c:	8f 70       	andi	r24, 0x0F	; 15
     58e:	98 2e       	mov	r9, r24
		
		//Get message data
		for(i = 0; i < message.length; i++) {
     590:	81 f0       	breq	.+32     	; 0x5b2 <CAN_data_receive+0x80>
     592:	7e 01       	movw	r14, r28
     594:	84 e0       	ldi	r24, 0x04	; 4
     596:	e8 0e       	add	r14, r24
     598:	f1 1c       	adc	r15, r1
     59a:	06 e6       	ldi	r16, 0x66	; 102
     59c:	09 0d       	add	r16, r9
     59e:	16 e6       	ldi	r17, 0x66	; 102
			message.data[i] = MCP_read(MCP_RXB0D0 + i);
     5a0:	81 2f       	mov	r24, r17
     5a2:	0e 94 90 04 	call	0x920	; 0x920 <MCP_read>
     5a6:	f7 01       	movw	r30, r14
     5a8:	81 93       	st	Z+, r24
     5aa:	7f 01       	movw	r14, r30
     5ac:	1f 5f       	subi	r17, 0xFF	; 255
		
		//Get message length
		message.length = (MCP_read(MCP_RXB0CTRL+5) & 0x0F);
		
		//Get message data
		for(i = 0; i < message.length; i++) {
     5ae:	10 13       	cpse	r17, r16
     5b0:	f7 cf       	rjmp	.-18     	; 0x5a0 <CAN_data_receive+0x6e>
			message.data[i] = MCP_read(MCP_RXB0D0 + i);
	}
		
		//Clear interrupt flag
		rx_flag = 0;
     5b2:	10 92 16 04 	sts	0x0416, r1	; 0x800416 <__data_end>
	}
		
	
	return message;
     5b6:	ba 82       	std	Y+2, r11	; 0x02
     5b8:	a9 82       	std	Y+1, r10	; 0x01
     5ba:	9b 82       	std	Y+3, r9	; 0x03
     5bc:	8b e0       	ldi	r24, 0x0B	; 11
     5be:	fe 01       	movw	r30, r28
     5c0:	31 96       	adiw	r30, 0x01	; 1
     5c2:	d6 01       	movw	r26, r12
     5c4:	01 90       	ld	r0, Z+
     5c6:	0d 92       	st	X+, r0
     5c8:	8a 95       	dec	r24
     5ca:	e1 f7       	brne	.-8      	; 0x5c4 <CAN_data_receive+0x92>
}
     5cc:	c6 01       	movw	r24, r12
     5ce:	2b 96       	adiw	r28, 0x0b	; 11
     5d0:	0f b6       	in	r0, 0x3f	; 63
     5d2:	f8 94       	cli
     5d4:	de bf       	out	0x3e, r29	; 62
     5d6:	0f be       	out	0x3f, r0	; 63
     5d8:	cd bf       	out	0x3d, r28	; 61
     5da:	df 91       	pop	r29
     5dc:	cf 91       	pop	r28
     5de:	1f 91       	pop	r17
     5e0:	0f 91       	pop	r16
     5e2:	ff 90       	pop	r15
     5e4:	ef 90       	pop	r14
     5e6:	df 90       	pop	r13
     5e8:	cf 90       	pop	r12
     5ea:	bf 90       	pop	r11
     5ec:	af 90       	pop	r10
     5ee:	9f 90       	pop	r9
     5f0:	08 95       	ret

000005f2 <__vector_1>:

//Interrupt for CAN
ISR(INT0_vect) {
     5f2:	1f 92       	push	r1
     5f4:	0f 92       	push	r0
     5f6:	0f b6       	in	r0, 0x3f	; 63
     5f8:	0f 92       	push	r0
     5fa:	11 24       	eor	r1, r1
     5fc:	2f 93       	push	r18
     5fe:	3f 93       	push	r19
     600:	4f 93       	push	r20
     602:	5f 93       	push	r21
     604:	6f 93       	push	r22
     606:	7f 93       	push	r23
     608:	8f 93       	push	r24
     60a:	9f 93       	push	r25
     60c:	af 93       	push	r26
     60e:	bf 93       	push	r27
     610:	ef 93       	push	r30
     612:	ff 93       	push	r31
	MCP_bit_modify(MCP_CANINTF, MCP_RXF0SIDL, MCP_RXF0SIDH);
     614:	40 e0       	ldi	r20, 0x00	; 0
     616:	61 e0       	ldi	r22, 0x01	; 1
     618:	8c e2       	ldi	r24, 0x2C	; 44
     61a:	0e 94 e4 04 	call	0x9c8	; 0x9c8 <MCP_bit_modify>
	rx_flag = 1;
     61e:	81 e0       	ldi	r24, 0x01	; 1
     620:	80 93 16 04 	sts	0x0416, r24	; 0x800416 <__data_end>
}
     624:	ff 91       	pop	r31
     626:	ef 91       	pop	r30
     628:	bf 91       	pop	r27
     62a:	af 91       	pop	r26
     62c:	9f 91       	pop	r25
     62e:	8f 91       	pop	r24
     630:	7f 91       	pop	r23
     632:	6f 91       	pop	r22
     634:	5f 91       	pop	r21
     636:	4f 91       	pop	r20
     638:	3f 91       	pop	r19
     63a:	2f 91       	pop	r18
     63c:	0f 90       	pop	r0
     63e:	0f be       	out	0x3f, r0	; 63
     640:	0f 90       	pop	r0
     642:	1f 90       	pop	r1
     644:	18 95       	reti

00000646 <JOY_calibrate>:
	return 0;
}

//the calibrate function reads the initial values of the joystick and assumes these are the neutral positions.
int JOY_calibrate(void) {
	mid_x=ADC_read(0);
     646:	80 e0       	ldi	r24, 0x00	; 0
     648:	0e 94 fa 01 	call	0x3f4	; 0x3f4 <ADC_read>
     64c:	80 93 20 04 	sts	0x0420, r24	; 0x800420 <mid_x>
	mid_y=ADC_read(1);
     650:	81 e0       	ldi	r24, 0x01	; 1
     652:	0e 94 fa 01 	call	0x3f4	; 0x3f4 <ADC_read>
     656:	80 93 1f 04 	sts	0x041F, r24	; 0x80041f <mid_y>
	return 0;
}
     65a:	80 e0       	ldi	r24, 0x00	; 0
     65c:	90 e0       	ldi	r25, 0x00	; 0
     65e:	08 95       	ret

00000660 <joy_init>:

uint8_t mid_x, mid_y;

int joy_init(void){
	// let the ADC set itself up
	ADC_init();
     660:	0e 94 f0 01 	call	0x3e0	; 0x3e0 <ADC_init>
	
	//Set Button pins to input
	DDRB &= ~(1<<PINB0) & ~(1<<PINB1) & ~(1<<PINB2);
     664:	87 b3       	in	r24, 0x17	; 23
     666:	88 7f       	andi	r24, 0xF8	; 248
     668:	87 bb       	out	0x17, r24	; 23
	//set pull up resistors
	PORTB |= (1<<PINB0) | (1<<PINB1) | (1<<PINB2); 
     66a:	88 b3       	in	r24, 0x18	; 24
     66c:	87 60       	ori	r24, 0x07	; 7
     66e:	88 bb       	out	0x18, r24	; 24
	
	//Let the joystick calibrate itself
	JOY_calibrate();
     670:	0e 94 23 03 	call	0x646	; 0x646 <JOY_calibrate>
	
	return 0;
}
     674:	80 e0       	ldi	r24, 0x00	; 0
     676:	90 e0       	ldi	r25, 0x00	; 0
     678:	08 95       	ret

0000067a <joy_button>:
	return 0;
}

// setting the inputs for the pins that the buttons are connected to
int joy_button(int button){
	switch (button) {
     67a:	81 30       	cpi	r24, 0x01	; 1
     67c:	91 05       	cpc	r25, r1
     67e:	19 f0       	breq	.+6      	; 0x686 <joy_button+0xc>
     680:	02 97       	sbiw	r24, 0x02	; 2
     682:	41 f0       	breq	.+16     	; 0x694 <joy_button+0x1a>
     684:	0f c0       	rjmp	.+30     	; 0x6a4 <joy_button+0x2a>
		case 1: // left button
			if (!test_bit(PINB,PINB1)) return 1;
     686:	86 b3       	in	r24, 0x16	; 22
     688:	86 95       	lsr	r24
     68a:	91 e0       	ldi	r25, 0x01	; 1
     68c:	89 27       	eor	r24, r25
     68e:	81 70       	andi	r24, 0x01	; 1
     690:	90 e0       	ldi	r25, 0x00	; 0
     692:	08 95       	ret
			break;	
		case 2: // right button
			if (!test_bit(PINB,PINB2)) return 1;
     694:	86 b3       	in	r24, 0x16	; 22

// setting the inputs for the pins that the buttons are connected to
int joy_button(int button){
	switch (button) {
		case 1: // left button
			if (!test_bit(PINB,PINB1)) return 1;
     696:	86 95       	lsr	r24
     698:	86 95       	lsr	r24
     69a:	91 e0       	ldi	r25, 0x01	; 1
     69c:	89 27       	eor	r24, r25
     69e:	81 70       	andi	r24, 0x01	; 1
     6a0:	90 e0       	ldi	r25, 0x00	; 0
     6a2:	08 95       	ret
			if (!test_bit(PINB,PINB2)) return 1;
			break;
		default:
			break;
	}
	return 0;
     6a4:	80 e0       	ldi	r24, 0x00	; 0
     6a6:	90 e0       	ldi	r25, 0x00	; 0
}
     6a8:	08 95       	ret

000006aa <JOY_getPosition>:

// function that is used to get the position of the joystick
joy_position JOY_getPosition(void) {
     6aa:	cf 93       	push	r28
	joy_position position;
	uint8_t x, y;
	
	//Read position x from channel 0
	x = ADC_read(1);
     6ac:	81 e0       	ldi	r24, 0x01	; 1
     6ae:	0e 94 fa 01 	call	0x3f4	; 0x3f4 <ADC_read>
     6b2:	c8 2f       	mov	r28, r24
	//Read position y from channel 1
	y = ADC_read(0);
     6b4:	80 e0       	ldi	r24, 0x00	; 0
     6b6:	0e 94 fa 01 	call	0x3f4	; 0x3f4 <ADC_read>
     6ba:	e8 2f       	mov	r30, r24
	
	//Calculate position x percentage
	if(x > mid_x) {
     6bc:	40 91 20 04 	lds	r20, 0x0420	; 0x800420 <mid_x>
     6c0:	4c 17       	cp	r20, r28
     6c2:	98 f4       	brcc	.+38     	; 0x6ea <JOY_getPosition+0x40>
		position.x = 100 * (x - mid_x) / (0xFF - mid_x);
     6c4:	50 e0       	ldi	r21, 0x00	; 0
     6c6:	2c 2f       	mov	r18, r28
     6c8:	30 e0       	ldi	r19, 0x00	; 0
     6ca:	24 1b       	sub	r18, r20
     6cc:	35 0b       	sbc	r19, r21
     6ce:	64 e6       	ldi	r22, 0x64	; 100
     6d0:	62 9f       	mul	r22, r18
     6d2:	c0 01       	movw	r24, r0
     6d4:	63 9f       	mul	r22, r19
     6d6:	90 0d       	add	r25, r0
     6d8:	11 24       	eor	r1, r1
     6da:	6f ef       	ldi	r22, 0xFF	; 255
     6dc:	70 e0       	ldi	r23, 0x00	; 0
     6de:	64 1b       	sub	r22, r20
     6e0:	75 0b       	sbc	r23, r21
     6e2:	0e 94 64 17 	call	0x2ec8	; 0x2ec8 <__divmodhi4>
     6e6:	46 2f       	mov	r20, r22
     6e8:	13 c0       	rjmp	.+38     	; 0x710 <JOY_getPosition+0x66>
		} else if (x < mid_x) {
     6ea:	c4 17       	cp	r28, r20
     6ec:	80 f4       	brcc	.+32     	; 0x70e <JOY_getPosition+0x64>
		position.x = 100 * (x - mid_x) / (mid_x - 0);
     6ee:	64 2f       	mov	r22, r20
     6f0:	70 e0       	ldi	r23, 0x00	; 0
     6f2:	2c 2f       	mov	r18, r28
     6f4:	30 e0       	ldi	r19, 0x00	; 0
     6f6:	26 1b       	sub	r18, r22
     6f8:	37 0b       	sbc	r19, r23
     6fa:	44 e6       	ldi	r20, 0x64	; 100
     6fc:	42 9f       	mul	r20, r18
     6fe:	c0 01       	movw	r24, r0
     700:	43 9f       	mul	r20, r19
     702:	90 0d       	add	r25, r0
     704:	11 24       	eor	r1, r1
     706:	0e 94 64 17 	call	0x2ec8	; 0x2ec8 <__divmodhi4>
     70a:	46 2f       	mov	r20, r22
     70c:	01 c0       	rjmp	.+2      	; 0x710 <JOY_getPosition+0x66>
		} else {
		position.x = 0;
     70e:	40 e0       	ldi	r20, 0x00	; 0
	}
	
	//Calculate position y percentage
	if(y > mid_y) {
     710:	20 91 1f 04 	lds	r18, 0x041F	; 0x80041f <mid_y>
     714:	2e 17       	cp	r18, r30
     716:	90 f4       	brcc	.+36     	; 0x73c <JOY_getPosition+0x92>
		position.y = 100 * (y - mid_y) / (0xFF - mid_y);
     718:	30 e0       	ldi	r19, 0x00	; 0
     71a:	f0 e0       	ldi	r31, 0x00	; 0
     71c:	e2 1b       	sub	r30, r18
     71e:	f3 0b       	sbc	r31, r19
     720:	54 e6       	ldi	r21, 0x64	; 100
     722:	5e 9f       	mul	r21, r30
     724:	c0 01       	movw	r24, r0
     726:	5f 9f       	mul	r21, r31
     728:	90 0d       	add	r25, r0
     72a:	11 24       	eor	r1, r1
     72c:	6f ef       	ldi	r22, 0xFF	; 255
     72e:	70 e0       	ldi	r23, 0x00	; 0
     730:	62 1b       	sub	r22, r18
     732:	73 0b       	sbc	r23, r19
     734:	0e 94 64 17 	call	0x2ec8	; 0x2ec8 <__divmodhi4>
     738:	76 2f       	mov	r23, r22
     73a:	13 c0       	rjmp	.+38     	; 0x762 <JOY_getPosition+0xb8>
		} else if (y < mid_y) {
     73c:	e2 17       	cp	r30, r18
     73e:	80 f4       	brcc	.+32     	; 0x760 <JOY_getPosition+0xb6>
		position.y = 100 * (y - mid_y) / (mid_y - 0);
     740:	62 2f       	mov	r22, r18
     742:	70 e0       	ldi	r23, 0x00	; 0
     744:	2e 2f       	mov	r18, r30
     746:	30 e0       	ldi	r19, 0x00	; 0
     748:	26 1b       	sub	r18, r22
     74a:	37 0b       	sbc	r19, r23
     74c:	54 e6       	ldi	r21, 0x64	; 100
     74e:	52 9f       	mul	r21, r18
     750:	c0 01       	movw	r24, r0
     752:	53 9f       	mul	r21, r19
     754:	90 0d       	add	r25, r0
     756:	11 24       	eor	r1, r1
     758:	0e 94 64 17 	call	0x2ec8	; 0x2ec8 <__divmodhi4>
     75c:	76 2f       	mov	r23, r22
     75e:	01 c0       	rjmp	.+2      	; 0x762 <JOY_getPosition+0xb8>
		} else {
		position.y = 0;
     760:	70 e0       	ldi	r23, 0x00	; 0
	}
	
	return position;
}
     762:	64 2f       	mov	r22, r20
     764:	80 e0       	ldi	r24, 0x00	; 0
     766:	90 e0       	ldi	r25, 0x00	; 0
     768:	cf 91       	pop	r28
     76a:	08 95       	ret

0000076c <JOY_getDirection>:
//function to find the direction of the joystick, for use in the menu, represented both as a string and an integer
joy_position JOY_getDirection(void) {
	joy_position position;
	
	//Get actual position of joystick
	position = JOY_getPosition();
     76c:	0e 94 55 03 	call	0x6aa	; 0x6aa <JOY_getPosition>
     770:	27 2f       	mov	r18, r23
	
	if(position.x < -45) {
     772:	63 3d       	cpi	r22, 0xD3	; 211
     774:	24 f0       	brlt	.+8      	; 0x77e <JOY_getDirection+0x12>
		position.sidedir = 2;
		} 
	else if(position.x > 45) {
     776:	6e 32       	cpi	r22, 0x2E	; 46
     778:	1c f0       	brlt	.+6      	; 0x780 <JOY_getDirection+0x14>
		position.sidedir = 1;
     77a:	91 e0       	ldi	r25, 0x01	; 1
     77c:	01 c0       	rjmp	.+2      	; 0x780 <JOY_getDirection+0x14>
	
	//Get actual position of joystick
	position = JOY_getPosition();
	
	if(position.x < -45) {
		position.sidedir = 2;
     77e:	92 e0       	ldi	r25, 0x02	; 2
		} 
	else if(position.x > 45) {
		position.sidedir = 1;
	}
	
	if(position.y < -45) {
     780:	23 3d       	cpi	r18, 0xD3	; 211
     782:	24 f0       	brlt	.+8      	; 0x78c <JOY_getDirection+0x20>
		position.dir = 2;
		} 
	else if(position.y > 45) {
     784:	2e 32       	cpi	r18, 0x2E	; 46
     786:	1c f0       	brlt	.+6      	; 0x78e <JOY_getDirection+0x22>
		position.dir = 1;
     788:	81 e0       	ldi	r24, 0x01	; 1
     78a:	01 c0       	rjmp	.+2      	; 0x78e <JOY_getDirection+0x22>
	else if(position.x > 45) {
		position.sidedir = 1;
	}
	
	if(position.y < -45) {
		position.dir = 2;
     78c:	82 e0       	ldi	r24, 0x02	; 2
		} 
	else if(position.y > 45) {
		position.dir = 1;
	}
	
	if((position.x >= -44 && position.x <= 44) && (position.y >= -44 && position.y <= 44)){
     78e:	2c e2       	ldi	r18, 0x2C	; 44
     790:	26 0f       	add	r18, r22
     792:	29 35       	cpi	r18, 0x59	; 89
     794:	30 f4       	brcc	.+12     	; 0x7a2 <JOY_getDirection+0x36>
     796:	2c e2       	ldi	r18, 0x2C	; 44
     798:	27 0f       	add	r18, r23
     79a:	29 35       	cpi	r18, 0x59	; 89
     79c:	10 f4       	brcc	.+4      	; 0x7a2 <JOY_getDirection+0x36>
		position.dir = 0;
		position.sidedir = 0;
     79e:	90 e0       	ldi	r25, 0x00	; 0
	else if(position.y > 45) {
		position.dir = 1;
	}
	
	if((position.x >= -44 && position.x <= 44) && (position.y >= -44 && position.y <= 44)){
		position.dir = 0;
     7a0:	80 e0       	ldi	r24, 0x00	; 0
		position.sidedir = 0;
	}
	
	return position;
}
     7a2:	08 95       	ret

000007a4 <JOY_getSliderPosition>:
//find the slider position, for both sliders
slider_position JOY_getSliderPosition(void) {
     7a4:	cf 93       	push	r28
	slider_position position;
	uint8_t l, r;
	
	//Read left slider from channel 2
	l = ADC_read(2);
     7a6:	82 e0       	ldi	r24, 0x02	; 2
     7a8:	0e 94 fa 01 	call	0x3f4	; 0x3f4 <ADC_read>
     7ac:	c8 2f       	mov	r28, r24
	//Read right slider from channel 3
	r = ADC_read(3);
     7ae:	83 e0       	ldi	r24, 0x03	; 3
     7b0:	0e 94 fa 01 	call	0x3f4	; 0x3f4 <ADC_read>
     7b4:	48 2f       	mov	r20, r24
	
	//Calculate position percentage
	position.left = 100 * l / 0xFF;
	position.right = 100 * r / 0xFF;
	
	return position;
     7b6:	24 e6       	ldi	r18, 0x64	; 100
     7b8:	2c 9f       	mul	r18, r28
     7ba:	c0 01       	movw	r24, r0
     7bc:	11 24       	eor	r1, r1
     7be:	ef ef       	ldi	r30, 0xFF	; 255
     7c0:	f0 e0       	ldi	r31, 0x00	; 0
     7c2:	bf 01       	movw	r22, r30
     7c4:	0e 94 64 17 	call	0x2ec8	; 0x2ec8 <__divmodhi4>
     7c8:	36 2f       	mov	r19, r22
     7ca:	24 9f       	mul	r18, r20
     7cc:	c0 01       	movw	r24, r0
     7ce:	11 24       	eor	r1, r1
     7d0:	bf 01       	movw	r22, r30
     7d2:	0e 94 64 17 	call	0x2ec8	; 0x2ec8 <__divmodhi4>
     7d6:	96 2f       	mov	r25, r22
}
     7d8:	83 2f       	mov	r24, r19
     7da:	cf 91       	pop	r28
     7dc:	08 95       	ret

000007de <main>:
int score;
int x, y;
	
int main(void)
{
	cli();
     7de:	f8 94       	cli
	
	GICR  |= (1 << INT0);						//Enable INT0
     7e0:	8b b7       	in	r24, 0x3b	; 59
     7e2:	80 64       	ori	r24, 0x40	; 64
     7e4:	8b bf       	out	0x3b, r24	; 59
	MCUCR |= (0 << ISC01) | (0 << ISC00);		//On falling edge
     7e6:	85 b7       	in	r24, 0x35	; 53
     7e8:	85 bf       	out	0x35, r24	; 53
	DDRD &= ~(1 << PIND2);						//Set D2(INT0) as input
     7ea:	8a 98       	cbi	0x11, 2	; 17
	
	UART_Init(UBRREG);
     7ec:	8e e1       	ldi	r24, 0x1E	; 30
     7ee:	90 e0       	ldi	r25, 0x00	; 0
     7f0:	0e 94 82 15 	call	0x2b04	; 0x2b04 <UART_Init>
	ADC_init();
     7f4:	0e 94 f0 01 	call	0x3e0	; 0x3e0 <ADC_init>
	SPI_init();
     7f8:	0e 94 56 15 	call	0x2aac	; 0x2aac <SPI_init>
	MCP_init();
     7fc:	0e 94 a7 04 	call	0x94e	; 0x94e <MCP_init>
	joy_init();
     800:	0e 94 30 03 	call	0x660	; 0x660 <joy_init>
	SRAM_init();
     804:	0e 94 6e 15 	call	0x2adc	; 0x2adc <SRAM_init>
	OLED_init();;
     808:	0e 94 fc 11 	call	0x23f8	; 0x23f8 <OLED_init>
	JOY_calibrate();
     80c:	0e 94 23 03 	call	0x646	; 0x646 <JOY_calibrate>
	
	if (CAN_init() == 0) {
     810:	0e 94 07 02 	call	0x40e	; 0x40e <CAN_init>
     814:	89 2b       	or	r24, r25
     816:	89 f4       	brne	.+34     	; 0x83a <main+0x5c>
		printf("CAN initiated \n\r");
     818:	8a e8       	ldi	r24, 0x8A	; 138
     81a:	91 e0       	ldi	r25, 0x01	; 1
     81c:	9f 93       	push	r25
     81e:	8f 93       	push	r24
     820:	0e 94 0d 18 	call	0x301a	; 0x301a <printf>
		can_msg_send.id = 2;
     824:	e1 e2       	ldi	r30, 0x21	; 33
     826:	f4 e0       	ldi	r31, 0x04	; 4
     828:	82 e0       	ldi	r24, 0x02	; 2
     82a:	90 e0       	ldi	r25, 0x00	; 0
     82c:	91 83       	std	Z+1, r25	; 0x01
     82e:	80 83       	st	Z, r24
		can_msg_send.length = 7;
     830:	87 e0       	ldi	r24, 0x07	; 7
     832:	82 83       	std	Z+2, r24	; 0x02
     834:	0f 90       	pop	r0
     836:	0f 90       	pop	r0
     838:	08 c0       	rjmp	.+16     	; 0x84a <main+0x6c>
		} else {
		printf("CAN not initiated properly \n\r");
     83a:	8b e9       	ldi	r24, 0x9B	; 155
     83c:	91 e0       	ldi	r25, 0x01	; 1
     83e:	9f 93       	push	r25
     840:	8f 93       	push	r24
     842:	0e 94 0d 18 	call	0x301a	; 0x301a <printf>
     846:	0f 90       	pop	r0
     848:	0f 90       	pop	r0
	}

	if (joy_init() == 0) {
     84a:	0e 94 30 03 	call	0x660	; 0x660 <joy_init>
     84e:	89 2b       	or	r24, r25
     850:	49 f4       	brne	.+18     	; 0x864 <main+0x86>
		printf(" Joystick initiated \n\r");
     852:	89 eb       	ldi	r24, 0xB9	; 185
     854:	91 e0       	ldi	r25, 0x01	; 1
     856:	9f 93       	push	r25
     858:	8f 93       	push	r24
     85a:	0e 94 0d 18 	call	0x301a	; 0x301a <printf>
     85e:	0f 90       	pop	r0
     860:	0f 90       	pop	r0
     862:	08 c0       	rjmp	.+16     	; 0x874 <main+0x96>
		} else {
		printf(" Joystick not initiated properly\n\r");
     864:	80 ed       	ldi	r24, 0xD0	; 208
     866:	91 e0       	ldi	r25, 0x01	; 1
     868:	9f 93       	push	r25
     86a:	8f 93       	push	r24
     86c:	0e 94 0d 18 	call	0x301a	; 0x301a <printf>
     870:	0f 90       	pop	r0
     872:	0f 90       	pop	r0
	}
	
	sei();
     874:	78 94       	sei
	while(1){
			joy_pos = JOY_getDirection();
			slider_pos = JOY_getSliderPosition();
		if (menuactive == 1){
			gamestep = init_menu();
			can_msg_send.data[4] = 0;
     876:	c1 e2       	ldi	r28, 0x21	; 33
     878:	d4 e0       	ldi	r29, 0x04	; 4
     87a:	ec 2e       	mov	r14, r28
     87c:	fd 2e       	mov	r15, r29
			CAN_message_send(&can_msg_send);
		}
		if (menuactive == 2){
			can_msg_send.data[3] = diff;
			can_msg_send.data[4] = 1;
     87e:	dd 24       	eor	r13, r13
     880:	d3 94       	inc	r13
			CAN_message_send(&can_msg_send);
			_delay_ms(50);
			score = OLED_game(diff);
			gamestep = 1;
     882:	01 e0       	ldi	r16, 0x01	; 1
     884:	10 e0       	ldi	r17, 0x00	; 0
	}
	
	sei();
	
	while(1){
			joy_pos = JOY_getDirection();
     886:	0e 94 b6 03 	call	0x76c	; 0x76c <JOY_getDirection>
     88a:	60 93 40 04 	sts	0x0440, r22	; 0x800440 <joy_pos>
     88e:	70 93 41 04 	sts	0x0441, r23	; 0x800441 <joy_pos+0x1>
     892:	80 93 42 04 	sts	0x0442, r24	; 0x800442 <joy_pos+0x2>
     896:	90 93 43 04 	sts	0x0443, r25	; 0x800443 <joy_pos+0x3>
			slider_pos = JOY_getSliderPosition();
     89a:	0e 94 d2 03 	call	0x7a4	; 0x7a4 <JOY_getSliderPosition>
     89e:	90 93 45 04 	sts	0x0445, r25	; 0x800445 <slider_pos+0x1>
     8a2:	80 93 44 04 	sts	0x0444, r24	; 0x800444 <slider_pos>
		if (menuactive == 1){
     8a6:	80 91 0b 01 	lds	r24, 0x010B	; 0x80010b <menuactive>
     8aa:	81 30       	cpi	r24, 0x01	; 1
     8ac:	59 f4       	brne	.+22     	; 0x8c4 <main+0xe6>
			gamestep = init_menu();
     8ae:	0e 94 02 05 	call	0xa04	; 0xa04 <init_menu>
     8b2:	90 93 09 01 	sts	0x0109, r25	; 0x800109 <gamestep+0x1>
     8b6:	80 93 08 01 	sts	0x0108, r24	; 0x800108 <gamestep>
			can_msg_send.data[4] = 0;
     8ba:	1f 82       	std	Y+7, r1	; 0x07
			CAN_message_send(&can_msg_send);
     8bc:	8e 2d       	mov	r24, r14
     8be:	9f 2d       	mov	r25, r15
     8c0:	0e 94 46 02 	call	0x48c	; 0x48c <CAN_message_send>
		}
		if (menuactive == 2){
     8c4:	80 91 0b 01 	lds	r24, 0x010B	; 0x80010b <menuactive>
     8c8:	82 30       	cpi	r24, 0x02	; 2
     8ca:	e9 f6       	brne	.-70     	; 0x886 <main+0xa8>
			can_msg_send.data[3] = diff;
     8cc:	80 91 0a 01 	lds	r24, 0x010A	; 0x80010a <diff>
     8d0:	8e 83       	std	Y+6, r24	; 0x06
			can_msg_send.data[4] = 1;
     8d2:	df 82       	std	Y+7, r13	; 0x07
			CAN_message_send(&can_msg_send);
     8d4:	ce 01       	movw	r24, r28
     8d6:	0e 94 46 02 	call	0x48c	; 0x48c <CAN_message_send>
	#else
		//round up by default
		__ticks_dc = (uint32_t)(ceil(fabs(__tmp)));
	#endif

	__builtin_avr_delay_cycles(__ticks_dc);
     8da:	8e ed       	ldi	r24, 0xDE	; 222
     8dc:	9f ee       	ldi	r25, 0xEF	; 239
     8de:	01 97       	sbiw	r24, 0x01	; 1
     8e0:	f1 f7       	brne	.-4      	; 0x8de <main+0x100>
			_delay_ms(50);
			score = OLED_game(diff);
     8e2:	80 91 0a 01 	lds	r24, 0x010A	; 0x80010a <diff>
     8e6:	90 e0       	ldi	r25, 0x00	; 0
     8e8:	0e 94 fb 13 	call	0x27f6	; 0x27f6 <OLED_game>
     8ec:	90 93 3a 04 	sts	0x043A, r25	; 0x80043a <score+0x1>
     8f0:	80 93 39 04 	sts	0x0439, r24	; 0x800439 <score>
			gamestep = 1;
     8f4:	10 93 09 01 	sts	0x0109, r17	; 0x800109 <gamestep+0x1>
     8f8:	00 93 08 01 	sts	0x0108, r16	; 0x800108 <gamestep>
     8fc:	c4 cf       	rjmp	.-120    	; 0x886 <main+0xa8>

000008fe <MCP_reset>:
	SPI_send(MCP_READ_STATUS);
	uint8_t status = SPI_send(0);
	SPI_set_ss(1);
	
	return status;
}
     8fe:	80 e0       	ldi	r24, 0x00	; 0
     900:	90 e0       	ldi	r25, 0x00	; 0
     902:	0e 94 65 15 	call	0x2aca	; 0x2aca <SPI_set_ss>
     906:	80 ec       	ldi	r24, 0xC0	; 192
     908:	0e 94 5d 15 	call	0x2aba	; 0x2aba <SPI_send>
     90c:	85 ef       	ldi	r24, 0xF5	; 245
     90e:	90 e0       	ldi	r25, 0x00	; 0
     910:	01 97       	sbiw	r24, 0x01	; 1
     912:	f1 f7       	brne	.-4      	; 0x910 <MCP_reset+0x12>
     914:	00 c0       	rjmp	.+0      	; 0x916 <MCP_reset+0x18>
     916:	81 e0       	ldi	r24, 0x01	; 1
     918:	90 e0       	ldi	r25, 0x00	; 0
     91a:	0e 94 65 15 	call	0x2aca	; 0x2aca <SPI_set_ss>
     91e:	08 95       	ret

00000920 <MCP_read>:
     920:	cf 93       	push	r28
     922:	c8 2f       	mov	r28, r24
     924:	80 e0       	ldi	r24, 0x00	; 0
     926:	90 e0       	ldi	r25, 0x00	; 0
     928:	0e 94 65 15 	call	0x2aca	; 0x2aca <SPI_set_ss>
     92c:	83 e0       	ldi	r24, 0x03	; 3
     92e:	0e 94 5d 15 	call	0x2aba	; 0x2aba <SPI_send>
     932:	8c 2f       	mov	r24, r28
     934:	0e 94 5d 15 	call	0x2aba	; 0x2aba <SPI_send>
     938:	80 e0       	ldi	r24, 0x00	; 0
     93a:	0e 94 5d 15 	call	0x2aba	; 0x2aba <SPI_send>
     93e:	c8 2f       	mov	r28, r24
     940:	81 e0       	ldi	r24, 0x01	; 1
     942:	90 e0       	ldi	r25, 0x00	; 0
     944:	0e 94 65 15 	call	0x2aca	; 0x2aca <SPI_set_ss>
     948:	8c 2f       	mov	r24, r28
     94a:	cf 91       	pop	r28
     94c:	08 95       	ret

0000094e <MCP_init>:
     94e:	0e 94 56 15 	call	0x2aac	; 0x2aac <SPI_init>
     952:	0e 94 7f 04 	call	0x8fe	; 0x8fe <MCP_reset>
     956:	8e e0       	ldi	r24, 0x0E	; 14
     958:	0e 94 90 04 	call	0x920	; 0x920 <MCP_read>
     95c:	80 7e       	andi	r24, 0xE0	; 224
     95e:	80 38       	cpi	r24, 0x80	; 128
     960:	51 f0       	breq	.+20     	; 0x976 <MCP_init+0x28>
     962:	83 ef       	ldi	r24, 0xF3	; 243
     964:	91 e0       	ldi	r25, 0x01	; 1
     966:	9f 93       	push	r25
     968:	8f 93       	push	r24
     96a:	0e 94 0d 18 	call	0x301a	; 0x301a <printf>
     96e:	0f 90       	pop	r0
     970:	0f 90       	pop	r0
     972:	81 e0       	ldi	r24, 0x01	; 1
     974:	08 95       	ret
     976:	80 e0       	ldi	r24, 0x00	; 0
     978:	08 95       	ret

0000097a <MCP_write>:
     97a:	cf 93       	push	r28
     97c:	df 93       	push	r29
     97e:	d8 2f       	mov	r29, r24
     980:	c6 2f       	mov	r28, r22
     982:	80 e0       	ldi	r24, 0x00	; 0
     984:	90 e0       	ldi	r25, 0x00	; 0
     986:	0e 94 65 15 	call	0x2aca	; 0x2aca <SPI_set_ss>
     98a:	82 e0       	ldi	r24, 0x02	; 2
     98c:	0e 94 5d 15 	call	0x2aba	; 0x2aba <SPI_send>
     990:	8d 2f       	mov	r24, r29
     992:	0e 94 5d 15 	call	0x2aba	; 0x2aba <SPI_send>
     996:	8c 2f       	mov	r24, r28
     998:	0e 94 5d 15 	call	0x2aba	; 0x2aba <SPI_send>
     99c:	81 e0       	ldi	r24, 0x01	; 1
     99e:	90 e0       	ldi	r25, 0x00	; 0
     9a0:	0e 94 65 15 	call	0x2aca	; 0x2aca <SPI_set_ss>
     9a4:	df 91       	pop	r29
     9a6:	cf 91       	pop	r28
     9a8:	08 95       	ret

000009aa <MCP_request_to_send>:
     9aa:	cf 93       	push	r28
     9ac:	c8 2f       	mov	r28, r24
     9ae:	80 e0       	ldi	r24, 0x00	; 0
     9b0:	90 e0       	ldi	r25, 0x00	; 0
     9b2:	0e 94 65 15 	call	0x2aca	; 0x2aca <SPI_set_ss>
     9b6:	8c 2f       	mov	r24, r28
     9b8:	0e 94 5d 15 	call	0x2aba	; 0x2aba <SPI_send>
     9bc:	81 e0       	ldi	r24, 0x01	; 1
     9be:	90 e0       	ldi	r25, 0x00	; 0
     9c0:	0e 94 65 15 	call	0x2aca	; 0x2aca <SPI_set_ss>
     9c4:	cf 91       	pop	r28
     9c6:	08 95       	ret

000009c8 <MCP_bit_modify>:

//function that lets us change the settings of the MCP
void MCP_bit_modify( uint8_t address, uint8_t mask, uint8_t data )
{
     9c8:	1f 93       	push	r17
     9ca:	cf 93       	push	r28
     9cc:	df 93       	push	r29
     9ce:	18 2f       	mov	r17, r24
     9d0:	d6 2f       	mov	r29, r22
     9d2:	c4 2f       	mov	r28, r20
	SPI_set_ss(0);
     9d4:	80 e0       	ldi	r24, 0x00	; 0
     9d6:	90 e0       	ldi	r25, 0x00	; 0
     9d8:	0e 94 65 15 	call	0x2aca	; 0x2aca <SPI_set_ss>
	SPI_send(MCP_BITMOD);
     9dc:	85 e0       	ldi	r24, 0x05	; 5
     9de:	0e 94 5d 15 	call	0x2aba	; 0x2aba <SPI_send>
	
	SPI_send(address);
     9e2:	81 2f       	mov	r24, r17
     9e4:	0e 94 5d 15 	call	0x2aba	; 0x2aba <SPI_send>
	SPI_send(mask);
     9e8:	8d 2f       	mov	r24, r29
     9ea:	0e 94 5d 15 	call	0x2aba	; 0x2aba <SPI_send>
	SPI_send(data);
     9ee:	8c 2f       	mov	r24, r28
     9f0:	0e 94 5d 15 	call	0x2aba	; 0x2aba <SPI_send>
	
	SPI_set_ss(1);
     9f4:	81 e0       	ldi	r24, 0x01	; 1
     9f6:	90 e0       	ldi	r25, 0x00	; 0
     9f8:	0e 94 65 15 	call	0x2aca	; 0x2aca <SPI_set_ss>
}
     9fc:	df 91       	pop	r29
     9fe:	cf 91       	pop	r28
     a00:	1f 91       	pop	r17
     a02:	08 95       	ret

00000a04 <init_menu>:
extern char* highscorename3[4] = {".", ".", ".", "."};
char buffer[8];
char* name[4];
joy_position joy_pos;

int init_menu(void) {
     a04:	2f 92       	push	r2
     a06:	3f 92       	push	r3
     a08:	4f 92       	push	r4
     a0a:	5f 92       	push	r5
     a0c:	6f 92       	push	r6
     a0e:	7f 92       	push	r7
     a10:	8f 92       	push	r8
     a12:	9f 92       	push	r9
     a14:	af 92       	push	r10
     a16:	bf 92       	push	r11
     a18:	cf 92       	push	r12
     a1a:	df 92       	push	r13
     a1c:	ef 92       	push	r14
     a1e:	ff 92       	push	r15
     a20:	0f 93       	push	r16
     a22:	1f 93       	push	r17
     a24:	cf 93       	push	r28
     a26:	df 93       	push	r29
     a28:	cd b7       	in	r28, 0x3d	; 61
     a2a:	de b7       	in	r29, 0x3e	; 62
     a2c:	60 97       	sbiw	r28, 0x10	; 16
     a2e:	0f b6       	in	r0, 0x3f	; 63
     a30:	f8 94       	cli
     a32:	de bf       	out	0x3e, r29	; 62
     a34:	0f be       	out	0x3f, r0	; 63
     a36:	cd bf       	out	0x3d, r28	; 61
	switch(menynummer){
     a38:	e0 91 17 04 	lds	r30, 0x0417	; 0x800417 <menynummer>
     a3c:	f0 91 18 04 	lds	r31, 0x0418	; 0x800418 <menynummer+0x1>
     a40:	ed 31       	cpi	r30, 0x1D	; 29
     a42:	f1 05       	cpc	r31, r1
     a44:	10 f0       	brcs	.+4      	; 0xa4a <init_menu+0x46>
     a46:	0c 94 54 11 	jmp	0x22a8	; 0x22a8 <init_menu+0x18a4>
     a4a:	e8 5c       	subi	r30, 0xC8	; 200
     a4c:	ff 4f       	sbci	r31, 0xFF	; 255
     a4e:	0c 94 78 17 	jmp	0x2ef0	; 0x2ef0 <__tablejump2__>
		case 0 : // Welcome-screen
				OLED_clear();
     a52:	0e 94 f0 11 	call	0x23e0	; 0x23e0 <OLED_clear>
				float y = 2;
				float z = 1;
				float w = 1;
				float x = 1;
     a56:	0f 2e       	mov	r0, r31
     a58:	c1 2c       	mov	r12, r1
     a5a:	d1 2c       	mov	r13, r1
     a5c:	f0 e8       	ldi	r31, 0x80	; 128
     a5e:	ef 2e       	mov	r14, r31
     a60:	ff e3       	ldi	r31, 0x3F	; 63
     a62:	ff 2e       	mov	r15, r31
     a64:	f0 2d       	mov	r31, r0
	switch(menynummer){
		case 0 : // Welcome-screen
				OLED_clear();
				float y = 2;
				float z = 1;
				float w = 1;
     a66:	26 01       	movw	r4, r12
     a68:	37 01       	movw	r6, r14
int init_menu(void) {
	switch(menynummer){
		case 0 : // Welcome-screen
				OLED_clear();
				float y = 2;
				float z = 1;
     a6a:	46 01       	movw	r8, r12
     a6c:	57 01       	movw	r10, r14

int init_menu(void) {
	switch(menynummer){
		case 0 : // Welcome-screen
				OLED_clear();
				float y = 2;
     a6e:	80 e0       	ldi	r24, 0x00	; 0
     a70:	90 e0       	ldi	r25, 0x00	; 0
     a72:	a0 e0       	ldi	r26, 0x00	; 0
     a74:	b0 e4       	ldi	r27, 0x40	; 64
     a76:	89 83       	std	Y+1, r24	; 0x01
     a78:	9a 83       	std	Y+2, r25	; 0x02
     a7a:	ab 83       	std	Y+3, r26	; 0x03
     a7c:	bc 83       	std	Y+4, r27	; 0x04
					if (y == 2){w = w*-1;}
					if (x == 15){z = z*-1;}
					if (x == 0){z = z*-1;}
					joy_pos = JOY_getDirection();
					_delay_ms(125);
					if (joy_pos.sidedir == 1){
     a7e:	00 e4       	ldi	r16, 0x40	; 64
     a80:	14 e0       	ldi	r17, 0x04	; 4
						menynummer = 28;
					}
					else if (joy_pos.sidedir == 2){
						menynummer = 28;
     a82:	0f 2e       	mov	r0, r31
     a84:	fc e1       	ldi	r31, 0x1C	; 28
     a86:	2f 2e       	mov	r2, r31
     a88:	31 2c       	mov	r3, r1
     a8a:	f0 2d       	mov	r31, r0
     a8c:	a0 e0       	ldi	r26, 0x00	; 0
     a8e:	b0 e0       	ldi	r27, 0x00	; 0
     a90:	ba 87       	std	Y+10, r27	; 0x0a
     a92:	a9 87       	std	Y+9, r26	; 0x09
     a94:	3e 82       	std	Y+6, r3	; 0x06
     a96:	2d 82       	std	Y+5, r2	; 0x05
				float y = 2;
				float z = 1;
				float w = 1;
				float x = 1;
				int counter = 0;
				while (menynummer == 0){
     a98:	f2 c0       	rjmp	.+484    	; 0xc7e <init_menu+0x27a>
					OLED_clear();
     a9a:	0e 94 f0 11 	call	0x23e0	; 0x23e0 <OLED_clear>
					OLED_pos(7,x-2);
     a9e:	20 e0       	ldi	r18, 0x00	; 0
     aa0:	30 e0       	ldi	r19, 0x00	; 0
     aa2:	40 e0       	ldi	r20, 0x00	; 0
     aa4:	50 e4       	ldi	r21, 0x40	; 64
     aa6:	c7 01       	movw	r24, r14
     aa8:	b6 01       	movw	r22, r12
     aaa:	0e 94 8f 15 	call	0x2b1e	; 0x2b1e <__subsf3>
     aae:	0e 94 01 16 	call	0x2c02	; 0x2c02 <__fixunssfsi>
     ab2:	87 e0       	ldi	r24, 0x07	; 7
     ab4:	0e 94 c3 11 	call	0x2386	; 0x2386 <OLED_pos>
					OLED_print("]_`");
     ab8:	85 e1       	ldi	r24, 0x15	; 21
     aba:	92 e0       	ldi	r25, 0x02	; 2
     abc:	0e 94 bd 12 	call	0x257a	; 0x257a <OLED_print>
					OLED_pos(1,6);
     ac0:	66 e0       	ldi	r22, 0x06	; 6
     ac2:	81 e0       	ldi	r24, 0x01	; 1
     ac4:	0e 94 c3 11 	call	0x2386	; 0x2386 <OLED_pos>
					if (counter < 10){
     ac8:	e9 85       	ldd	r30, Y+9	; 0x09
     aca:	fa 85       	ldd	r31, Y+10	; 0x0a
     acc:	3a 97       	sbiw	r30, 0x0a	; 10
     ace:	2c f4       	brge	.+10     	; 0xada <init_menu+0xd6>
						OLED_print("00");
     ad0:	89 e1       	ldi	r24, 0x19	; 25
     ad2:	92 e0       	ldi	r25, 0x02	; 2
     ad4:	0e 94 bd 12 	call	0x257a	; 0x257a <OLED_print>
     ad8:	09 c0       	rjmp	.+18     	; 0xaec <init_menu+0xe8>
					}
					else if (counter < 100){
     ada:	29 85       	ldd	r18, Y+9	; 0x09
     adc:	3a 85       	ldd	r19, Y+10	; 0x0a
     ade:	24 36       	cpi	r18, 0x64	; 100
     ae0:	31 05       	cpc	r19, r1
     ae2:	24 f4       	brge	.+8      	; 0xaec <init_menu+0xe8>
						OLED_print("0");
     ae4:	8a e1       	ldi	r24, 0x1A	; 26
     ae6:	92 e0       	ldi	r25, 0x02	; 2
     ae8:	0e 94 bd 12 	call	0x257a	; 0x257a <OLED_print>
    } else if (__radix < 2 || __radix > 36) {
	*__s = 0;
	return __s;
    } else {
	extern char *__itoa_ncheck (int, char *, unsigned char);
	return __itoa_ncheck (__val, __s, __radix);
     aec:	4a e0       	ldi	r20, 0x0A	; 10
     aee:	68 e4       	ldi	r22, 0x48	; 72
     af0:	74 e0       	ldi	r23, 0x04	; 4
     af2:	89 85       	ldd	r24, Y+9	; 0x09
     af4:	9a 85       	ldd	r25, Y+10	; 0x0a
     af6:	0e 94 9d 17 	call	0x2f3a	; 0x2f3a <__itoa_ncheck>
					}
					OLED_print(itoa(counter, buffer, 10));
     afa:	0e 94 bd 12 	call	0x257a	; 0x257a <OLED_print>
					OLED_pos(y,x-1);
     afe:	20 e0       	ldi	r18, 0x00	; 0
     b00:	30 e0       	ldi	r19, 0x00	; 0
     b02:	40 e8       	ldi	r20, 0x80	; 128
     b04:	5f e3       	ldi	r21, 0x3F	; 63
     b06:	c7 01       	movw	r24, r14
     b08:	b6 01       	movw	r22, r12
     b0a:	0e 94 8f 15 	call	0x2b1e	; 0x2b1e <__subsf3>
     b0e:	0e 94 01 16 	call	0x2c02	; 0x2c02 <__fixunssfsi>
     b12:	36 2e       	mov	r3, r22
     b14:	69 81       	ldd	r22, Y+1	; 0x01
     b16:	7a 81       	ldd	r23, Y+2	; 0x02
     b18:	8b 81       	ldd	r24, Y+3	; 0x03
     b1a:	9c 81       	ldd	r25, Y+4	; 0x04
     b1c:	0e 94 01 16 	call	0x2c02	; 0x2c02 <__fixunssfsi>
     b20:	86 2f       	mov	r24, r22
     b22:	63 2d       	mov	r22, r3
     b24:	0e 94 c3 11 	call	0x2386	; 0x2386 <OLED_pos>
					OLED_print("~");
     b28:	84 e7       	ldi	r24, 0x74	; 116
     b2a:	93 e0       	ldi	r25, 0x03	; 3
     b2c:	0e 94 bd 12 	call	0x257a	; 0x257a <OLED_print>
					OLED_pos(8,1);
     b30:	61 e0       	ldi	r22, 0x01	; 1
     b32:	88 e0       	ldi	r24, 0x08	; 8
     b34:	0e 94 c3 11 	call	0x2386	; 0x2386 <OLED_pos>
					OLED_print("Push B to start");
     b38:	8c e1       	ldi	r24, 0x1C	; 28
     b3a:	92 e0       	ldi	r25, 0x02	; 2
     b3c:	0e 94 bd 12 	call	0x257a	; 0x257a <OLED_print>
					x = x + z*1;
     b40:	a5 01       	movw	r20, r10
     b42:	94 01       	movw	r18, r8
     b44:	c7 01       	movw	r24, r14
     b46:	b6 01       	movw	r22, r12
     b48:	0e 94 90 15 	call	0x2b20	; 0x2b20 <__addsf3>
     b4c:	6b 01       	movw	r12, r22
     b4e:	7c 01       	movw	r14, r24
					y = y + w*0.5;
     b50:	20 e0       	ldi	r18, 0x00	; 0
     b52:	30 e0       	ldi	r19, 0x00	; 0
     b54:	40 e0       	ldi	r20, 0x00	; 0
     b56:	5f e3       	ldi	r21, 0x3F	; 63
     b58:	c3 01       	movw	r24, r6
     b5a:	b2 01       	movw	r22, r4
     b5c:	0e 94 aa 16 	call	0x2d54	; 0x2d54 <__mulsf3>
     b60:	9b 01       	movw	r18, r22
     b62:	ac 01       	movw	r20, r24
     b64:	69 81       	ldd	r22, Y+1	; 0x01
     b66:	7a 81       	ldd	r23, Y+2	; 0x02
     b68:	8b 81       	ldd	r24, Y+3	; 0x03
     b6a:	9c 81       	ldd	r25, Y+4	; 0x04
     b6c:	0e 94 90 15 	call	0x2b20	; 0x2b20 <__addsf3>
     b70:	69 83       	std	Y+1, r22	; 0x01
     b72:	7a 83       	std	Y+2, r23	; 0x02
     b74:	8b 83       	std	Y+3, r24	; 0x03
     b76:	9c 83       	std	Y+4, r25	; 0x04
					if (y == 6){w = w*-1; counter = counter + 1;}
     b78:	20 e0       	ldi	r18, 0x00	; 0
     b7a:	30 e0       	ldi	r19, 0x00	; 0
     b7c:	40 ec       	ldi	r20, 0xC0	; 192
     b7e:	50 e4       	ldi	r21, 0x40	; 64
     b80:	0e 94 fc 15 	call	0x2bf8	; 0x2bf8 <__cmpsf2>
     b84:	81 11       	cpse	r24, r1
     b86:	0a c0       	rjmp	.+20     	; 0xb9c <init_menu+0x198>
     b88:	77 fa       	bst	r7, 7
     b8a:	70 94       	com	r7
     b8c:	77 f8       	bld	r7, 7
     b8e:	70 94       	com	r7
     b90:	89 85       	ldd	r24, Y+9	; 0x09
     b92:	9a 85       	ldd	r25, Y+10	; 0x0a
     b94:	01 96       	adiw	r24, 0x01	; 1
     b96:	9a 87       	std	Y+10, r25	; 0x0a
     b98:	89 87       	std	Y+9, r24	; 0x09
     b9a:	10 c0       	rjmp	.+32     	; 0xbbc <init_menu+0x1b8>
					if (y == 2){w = w*-1;}
     b9c:	20 e0       	ldi	r18, 0x00	; 0
     b9e:	30 e0       	ldi	r19, 0x00	; 0
     ba0:	40 e0       	ldi	r20, 0x00	; 0
     ba2:	50 e4       	ldi	r21, 0x40	; 64
     ba4:	69 81       	ldd	r22, Y+1	; 0x01
     ba6:	7a 81       	ldd	r23, Y+2	; 0x02
     ba8:	8b 81       	ldd	r24, Y+3	; 0x03
     baa:	9c 81       	ldd	r25, Y+4	; 0x04
     bac:	0e 94 fc 15 	call	0x2bf8	; 0x2bf8 <__cmpsf2>
     bb0:	81 11       	cpse	r24, r1
     bb2:	04 c0       	rjmp	.+8      	; 0xbbc <init_menu+0x1b8>
     bb4:	77 fa       	bst	r7, 7
     bb6:	70 94       	com	r7
     bb8:	77 f8       	bld	r7, 7
     bba:	70 94       	com	r7
					if (x == 15){z = z*-1;}
     bbc:	20 e0       	ldi	r18, 0x00	; 0
     bbe:	30 e0       	ldi	r19, 0x00	; 0
     bc0:	40 e7       	ldi	r20, 0x70	; 112
     bc2:	51 e4       	ldi	r21, 0x41	; 65
     bc4:	c7 01       	movw	r24, r14
     bc6:	b6 01       	movw	r22, r12
     bc8:	0e 94 fc 15 	call	0x2bf8	; 0x2bf8 <__cmpsf2>
     bcc:	81 11       	cpse	r24, r1
     bce:	05 c0       	rjmp	.+10     	; 0xbda <init_menu+0x1d6>
     bd0:	b7 fa       	bst	r11, 7
     bd2:	b0 94       	com	r11
     bd4:	b7 f8       	bld	r11, 7
     bd6:	b0 94       	com	r11
     bd8:	0d c0       	rjmp	.+26     	; 0xbf4 <init_menu+0x1f0>
					if (x == 0){z = z*-1;}
     bda:	20 e0       	ldi	r18, 0x00	; 0
     bdc:	30 e0       	ldi	r19, 0x00	; 0
     bde:	a9 01       	movw	r20, r18
     be0:	c7 01       	movw	r24, r14
     be2:	b6 01       	movw	r22, r12
     be4:	0e 94 fc 15 	call	0x2bf8	; 0x2bf8 <__cmpsf2>
     be8:	81 11       	cpse	r24, r1
     bea:	04 c0       	rjmp	.+8      	; 0xbf4 <init_menu+0x1f0>
     bec:	b7 fa       	bst	r11, 7
     bee:	b0 94       	com	r11
     bf0:	b7 f8       	bld	r11, 7
     bf2:	b0 94       	com	r11
					joy_pos = JOY_getDirection();
     bf4:	0e 94 b6 03 	call	0x76c	; 0x76c <JOY_getDirection>
     bf8:	60 93 40 04 	sts	0x0440, r22	; 0x800440 <joy_pos>
     bfc:	70 93 41 04 	sts	0x0441, r23	; 0x800441 <joy_pos+0x1>
     c00:	80 93 42 04 	sts	0x0442, r24	; 0x800442 <joy_pos+0x2>
     c04:	90 93 43 04 	sts	0x0443, r25	; 0x800443 <joy_pos+0x3>
     c08:	9c eb       	ldi	r25, 0xBC	; 188
     c0a:	af ed       	ldi	r26, 0xDF	; 223
     c0c:	b1 e0       	ldi	r27, 0x01	; 1
     c0e:	91 50       	subi	r25, 0x01	; 1
     c10:	a0 40       	sbci	r26, 0x00	; 0
     c12:	b0 40       	sbci	r27, 0x00	; 0
     c14:	e1 f7       	brne	.-8      	; 0xc0e <init_menu+0x20a>
     c16:	00 00       	nop
					_delay_ms(125);
					if (joy_pos.sidedir == 1){
     c18:	f8 01       	movw	r30, r16
     c1a:	83 81       	ldd	r24, Z+3	; 0x03
     c1c:	81 30       	cpi	r24, 0x01	; 1
     c1e:	39 f4       	brne	.+14     	; 0xc2e <init_menu+0x22a>
						menynummer = 28;
     c20:	2d 81       	ldd	r18, Y+5	; 0x05
     c22:	3e 81       	ldd	r19, Y+6	; 0x06
     c24:	30 93 18 04 	sts	0x0418, r19	; 0x800418 <menynummer+0x1>
     c28:	20 93 17 04 	sts	0x0417, r18	; 0x800417 <menynummer>
     c2c:	28 c0       	rjmp	.+80     	; 0xc7e <init_menu+0x27a>
					}
					else if (joy_pos.sidedir == 2){
     c2e:	82 30       	cpi	r24, 0x02	; 2
     c30:	39 f4       	brne	.+14     	; 0xc40 <init_menu+0x23c>
						menynummer = 28;
     c32:	8d 81       	ldd	r24, Y+5	; 0x05
     c34:	9e 81       	ldd	r25, Y+6	; 0x06
     c36:	90 93 18 04 	sts	0x0418, r25	; 0x800418 <menynummer+0x1>
     c3a:	80 93 17 04 	sts	0x0417, r24	; 0x800417 <menynummer>
     c3e:	1f c0       	rjmp	.+62     	; 0xc7e <init_menu+0x27a>
					}
					else if (joy_pos.dir == 1){
     c40:	82 81       	ldd	r24, Z+2	; 0x02
     c42:	81 30       	cpi	r24, 0x01	; 1
     c44:	39 f4       	brne	.+14     	; 0xc54 <init_menu+0x250>
						menynummer = 1;
     c46:	81 e0       	ldi	r24, 0x01	; 1
     c48:	90 e0       	ldi	r25, 0x00	; 0
     c4a:	90 93 18 04 	sts	0x0418, r25	; 0x800418 <menynummer+0x1>
     c4e:	80 93 17 04 	sts	0x0417, r24	; 0x800417 <menynummer>
     c52:	15 c0       	rjmp	.+42     	; 0xc7e <init_menu+0x27a>
					}
					else if (joy_pos.dir == 2){
     c54:	82 30       	cpi	r24, 0x02	; 2
     c56:	39 f4       	brne	.+14     	; 0xc66 <init_menu+0x262>
						menynummer = 1;
     c58:	81 e0       	ldi	r24, 0x01	; 1
     c5a:	90 e0       	ldi	r25, 0x00	; 0
     c5c:	90 93 18 04 	sts	0x0418, r25	; 0x800418 <menynummer+0x1>
     c60:	80 93 17 04 	sts	0x0417, r24	; 0x800417 <menynummer>
     c64:	0c c0       	rjmp	.+24     	; 0xc7e <init_menu+0x27a>
					}
					else if (joy_button(1) == 0){
     c66:	81 e0       	ldi	r24, 0x01	; 1
     c68:	90 e0       	ldi	r25, 0x00	; 0
     c6a:	0e 94 3d 03 	call	0x67a	; 0x67a <joy_button>
     c6e:	89 2b       	or	r24, r25
     c70:	31 f4       	brne	.+12     	; 0xc7e <init_menu+0x27a>
						menynummer = 1;
     c72:	81 e0       	ldi	r24, 0x01	; 1
     c74:	90 e0       	ldi	r25, 0x00	; 0
     c76:	90 93 18 04 	sts	0x0418, r25	; 0x800418 <menynummer+0x1>
     c7a:	80 93 17 04 	sts	0x0417, r24	; 0x800417 <menynummer>
				float y = 2;
				float z = 1;
				float w = 1;
				float x = 1;
				int counter = 0;
				while (menynummer == 0){
     c7e:	80 91 17 04 	lds	r24, 0x0417	; 0x800417 <menynummer>
     c82:	90 91 18 04 	lds	r25, 0x0418	; 0x800418 <menynummer+0x1>
     c86:	89 2b       	or	r24, r25
     c88:	09 f4       	brne	.+2      	; 0xc8c <init_menu+0x288>
     c8a:	07 cf       	rjmp	.-498    	; 0xa9a <init_menu+0x96>
     c8c:	0c 94 54 11 	jmp	0x22a8	; 0x22a8 <init_menu+0x18a4>
						menynummer = 1;
					}
			}
			break;
		case 1 : // Main menu - Start Game
			OLED_clear();
     c90:	0e 94 f0 11 	call	0x23e0	; 0x23e0 <OLED_clear>
			OLED_pos(1, 1);
     c94:	61 e0       	ldi	r22, 0x01	; 1
     c96:	81 e0       	ldi	r24, 0x01	; 1
     c98:	0e 94 c3 11 	call	0x2386	; 0x2386 <OLED_pos>
			OLED_print("* Start game");
     c9c:	8c e2       	ldi	r24, 0x2C	; 44
     c9e:	92 e0       	ldi	r25, 0x02	; 2
     ca0:	0e 94 bd 12 	call	0x257a	; 0x257a <OLED_print>
			OLED_pos(3, 1);
     ca4:	61 e0       	ldi	r22, 0x01	; 1
     ca6:	83 e0       	ldi	r24, 0x03	; 3
     ca8:	0e 94 c3 11 	call	0x2386	; 0x2386 <OLED_pos>
			OLED_print("  Difficulty");
     cac:	89 e3       	ldi	r24, 0x39	; 57
     cae:	92 e0       	ldi	r25, 0x02	; 2
     cb0:	0e 94 bd 12 	call	0x257a	; 0x257a <OLED_print>
			OLED_pos(5, 1);
     cb4:	61 e0       	ldi	r22, 0x01	; 1
     cb6:	85 e0       	ldi	r24, 0x05	; 5
     cb8:	0e 94 c3 11 	call	0x2386	; 0x2386 <OLED_pos>
			OLED_print("  Highscores");
     cbc:	86 e4       	ldi	r24, 0x46	; 70
     cbe:	92 e0       	ldi	r25, 0x02	; 2
     cc0:	0e 94 bd 12 	call	0x257a	; 0x257a <OLED_print>
			OLED_pos(7, 1);
     cc4:	61 e0       	ldi	r22, 0x01	; 1
     cc6:	87 e0       	ldi	r24, 0x07	; 7
     cc8:	0e 94 c3 11 	call	0x2386	; 0x2386 <OLED_pos>
			OLED_print("  Mini-Pong");
     ccc:	83 e5       	ldi	r24, 0x53	; 83
     cce:	92 e0       	ldi	r25, 0x02	; 2
     cd0:	0e 94 bd 12 	call	0x257a	; 0x257a <OLED_print>
     cd4:	b3 e9       	ldi	r27, 0x93	; 147
     cd6:	ef ef       	ldi	r30, 0xFF	; 255
     cd8:	f2 e0       	ldi	r31, 0x02	; 2
     cda:	b1 50       	subi	r27, 0x01	; 1
     cdc:	e0 40       	sbci	r30, 0x00	; 0
     cde:	f0 40       	sbci	r31, 0x00	; 0
     ce0:	e1 f7       	brne	.-8      	; 0xcda <init_menu+0x2d6>
     ce2:	00 c0       	rjmp	.+0      	; 0xce4 <init_menu+0x2e0>
     ce4:	00 00       	nop
				_delay_ms(50);
				if (joy_pos.dir == 1){
					menynummer = 4;
				}
				else if (joy_pos.dir == 2){
					menynummer = 2;
     ce6:	02 e0       	ldi	r16, 0x02	; 2
     ce8:	10 e0       	ldi	r17, 0x00	; 0
			_delay_ms(200);
			while(menynummer == 1){
				joy_pos = JOY_getDirection();
				_delay_ms(50);
				if (joy_pos.dir == 1){
					menynummer = 4;
     cea:	68 94       	set
     cec:	ee 24       	eor	r14, r14
     cee:	e2 f8       	bld	r14, 2
     cf0:	f1 2c       	mov	r15, r1
     cf2:	42 c0       	rjmp	.+132    	; 0xd78 <init_menu+0x374>
			OLED_print("  Highscores");
			OLED_pos(7, 1);
			OLED_print("  Mini-Pong");
			_delay_ms(200);
			while(menynummer == 1){
				joy_pos = JOY_getDirection();
     cf4:	0e 94 b6 03 	call	0x76c	; 0x76c <JOY_getDirection>
     cf8:	60 93 40 04 	sts	0x0440, r22	; 0x800440 <joy_pos>
     cfc:	70 93 41 04 	sts	0x0441, r23	; 0x800441 <joy_pos+0x1>
     d00:	80 93 42 04 	sts	0x0442, r24	; 0x800442 <joy_pos+0x2>
     d04:	90 93 43 04 	sts	0x0443, r25	; 0x800443 <joy_pos+0x3>
     d08:	8e ed       	ldi	r24, 0xDE	; 222
     d0a:	9f ee       	ldi	r25, 0xEF	; 239
     d0c:	01 97       	sbiw	r24, 0x01	; 1
     d0e:	f1 f7       	brne	.-4      	; 0xd0c <init_menu+0x308>
				_delay_ms(50);
				if (joy_pos.dir == 1){
     d10:	80 91 42 04 	lds	r24, 0x0442	; 0x800442 <joy_pos+0x2>
     d14:	81 30       	cpi	r24, 0x01	; 1
     d16:	29 f4       	brne	.+10     	; 0xd22 <init_menu+0x31e>
					menynummer = 4;
     d18:	f0 92 18 04 	sts	0x0418, r15	; 0x800418 <menynummer+0x1>
     d1c:	e0 92 17 04 	sts	0x0417, r14	; 0x800417 <menynummer>
     d20:	2b c0       	rjmp	.+86     	; 0xd78 <init_menu+0x374>
				}
				else if (joy_pos.dir == 2){
     d22:	82 30       	cpi	r24, 0x02	; 2
     d24:	29 f4       	brne	.+10     	; 0xd30 <init_menu+0x32c>
					menynummer = 2;
     d26:	10 93 18 04 	sts	0x0418, r17	; 0x800418 <menynummer+0x1>
     d2a:	00 93 17 04 	sts	0x0417, r16	; 0x800417 <menynummer>
     d2e:	24 c0       	rjmp	.+72     	; 0xd78 <init_menu+0x374>
				}
				else if (joy_button(1) == 0){
     d30:	81 e0       	ldi	r24, 0x01	; 1
     d32:	90 e0       	ldi	r25, 0x00	; 0
     d34:	0e 94 3d 03 	call	0x67a	; 0x67a <joy_button>
     d38:	89 2b       	or	r24, r25
     d3a:	f1 f4       	brne	.+60     	; 0xd78 <init_menu+0x374>
					menuactive = 2;
     d3c:	82 e0       	ldi	r24, 0x02	; 2
     d3e:	90 e0       	ldi	r25, 0x00	; 0
     d40:	90 93 0c 01 	sts	0x010C, r25	; 0x80010c <highscorename3>
     d44:	80 93 0b 01 	sts	0x010B, r24	; 0x80010b <menuactive>
					menynummer = 27;
     d48:	8b e1       	ldi	r24, 0x1B	; 27
     d4a:	90 e0       	ldi	r25, 0x00	; 0
     d4c:	90 93 18 04 	sts	0x0418, r25	; 0x800418 <menynummer+0x1>
     d50:	80 93 17 04 	sts	0x0417, r24	; 0x800417 <menynummer>
					gamestep = 1;
     d54:	81 e0       	ldi	r24, 0x01	; 1
     d56:	90 e0       	ldi	r25, 0x00	; 0
     d58:	90 93 09 01 	sts	0x0109, r25	; 0x800109 <gamestep+0x1>
     d5c:	80 93 08 01 	sts	0x0108, r24	; 0x800108 <gamestep>
					hp = 3;
     d60:	83 e0       	ldi	r24, 0x03	; 3
     d62:	90 e0       	ldi	r25, 0x00	; 0
     d64:	90 93 07 01 	sts	0x0107, r25	; 0x800107 <hp+0x1>
     d68:	80 93 06 01 	sts	0x0106, r24	; 0x800106 <hp>
					score = 0;
     d6c:	10 92 3a 04 	sts	0x043A, r1	; 0x80043a <score+0x1>
     d70:	10 92 39 04 	sts	0x0439, r1	; 0x800439 <score>
					break;
     d74:	0c 94 54 11 	jmp	0x22a8	; 0x22a8 <init_menu+0x18a4>
			OLED_pos(5, 1);
			OLED_print("  Highscores");
			OLED_pos(7, 1);
			OLED_print("  Mini-Pong");
			_delay_ms(200);
			while(menynummer == 1){
     d78:	80 91 17 04 	lds	r24, 0x0417	; 0x800417 <menynummer>
     d7c:	90 91 18 04 	lds	r25, 0x0418	; 0x800418 <menynummer+0x1>
     d80:	01 97       	sbiw	r24, 0x01	; 1
     d82:	09 f4       	brne	.+2      	; 0xd86 <init_menu+0x382>
     d84:	b7 cf       	rjmp	.-146    	; 0xcf4 <init_menu+0x2f0>
     d86:	0c 94 54 11 	jmp	0x22a8	; 0x22a8 <init_menu+0x18a4>
					break;
				}
			}
			break;
		case 2 : // Main menu - Difficulty
			OLED_clear();
     d8a:	0e 94 f0 11 	call	0x23e0	; 0x23e0 <OLED_clear>
			OLED_pos(1, 1);
     d8e:	61 e0       	ldi	r22, 0x01	; 1
     d90:	81 e0       	ldi	r24, 0x01	; 1
     d92:	0e 94 c3 11 	call	0x2386	; 0x2386 <OLED_pos>
			OLED_print("  Start game");
     d96:	8f e5       	ldi	r24, 0x5F	; 95
     d98:	92 e0       	ldi	r25, 0x02	; 2
     d9a:	0e 94 bd 12 	call	0x257a	; 0x257a <OLED_print>
			OLED_pos(3, 1);
     d9e:	61 e0       	ldi	r22, 0x01	; 1
     da0:	83 e0       	ldi	r24, 0x03	; 3
     da2:	0e 94 c3 11 	call	0x2386	; 0x2386 <OLED_pos>
			OLED_print("* Difficulty");
     da6:	8c e6       	ldi	r24, 0x6C	; 108
     da8:	92 e0       	ldi	r25, 0x02	; 2
     daa:	0e 94 bd 12 	call	0x257a	; 0x257a <OLED_print>
			OLED_pos(5, 1);
     dae:	61 e0       	ldi	r22, 0x01	; 1
     db0:	85 e0       	ldi	r24, 0x05	; 5
     db2:	0e 94 c3 11 	call	0x2386	; 0x2386 <OLED_pos>
			OLED_print("  Highscores");
     db6:	86 e4       	ldi	r24, 0x46	; 70
     db8:	92 e0       	ldi	r25, 0x02	; 2
     dba:	0e 94 bd 12 	call	0x257a	; 0x257a <OLED_print>
			OLED_pos(7, 1);
     dbe:	61 e0       	ldi	r22, 0x01	; 1
     dc0:	87 e0       	ldi	r24, 0x07	; 7
     dc2:	0e 94 c3 11 	call	0x2386	; 0x2386 <OLED_pos>
			OLED_print("  Mini-Pong");
     dc6:	83 e5       	ldi	r24, 0x53	; 83
     dc8:	92 e0       	ldi	r25, 0x02	; 2
     dca:	0e 94 bd 12 	call	0x257a	; 0x257a <OLED_print>
     dce:	93 e9       	ldi	r25, 0x93	; 147
     dd0:	af ef       	ldi	r26, 0xFF	; 255
     dd2:	b2 e0       	ldi	r27, 0x02	; 2
     dd4:	91 50       	subi	r25, 0x01	; 1
     dd6:	a0 40       	sbci	r26, 0x00	; 0
     dd8:	b0 40       	sbci	r27, 0x00	; 0
     dda:	e1 f7       	brne	.-8      	; 0xdd4 <init_menu+0x3d0>
     ddc:	00 c0       	rjmp	.+0      	; 0xdde <init_menu+0x3da>
     dde:	00 00       	nop
				}
				else if (joy_button(1) == 0 && vanskelighetsgrad == 2){
					menynummer = 9;
				}
				else if (joy_button(1) == 0 && vanskelighetsgrad == 3){
					menynummer = 13;
     de0:	0f 2e       	mov	r0, r31
     de2:	fd e0       	ldi	r31, 0x0D	; 13
     de4:	af 2e       	mov	r10, r31
     de6:	b1 2c       	mov	r11, r1
     de8:	f0 2d       	mov	r31, r0
				}
				else if (joy_button(1) == 0 && vanskelighetsgrad == 1){
					menynummer = 5;
				}
				else if (joy_button(1) == 0 && vanskelighetsgrad == 2){
					menynummer = 9;
     dea:	0f 2e       	mov	r0, r31
     dec:	f9 e0       	ldi	r31, 0x09	; 9
     dee:	cf 2e       	mov	r12, r31
     df0:	d1 2c       	mov	r13, r1
     df2:	f0 2d       	mov	r31, r0
				}
				else if (joy_pos.dir == 1){
					menynummer = 1;
				}
				else if (joy_button(1) == 0 && vanskelighetsgrad == 1){
					menynummer = 5;
     df4:	0f 2e       	mov	r0, r31
     df6:	f5 e0       	ldi	r31, 0x05	; 5
     df8:	ef 2e       	mov	r14, r31
     dfa:	f1 2c       	mov	r15, r1
     dfc:	f0 2d       	mov	r31, r0
			_delay_ms(200);
			while(menynummer == 2){
				joy_pos = JOY_getDirection();
				_delay_ms(50);
				if (joy_pos.dir == 2){
					menynummer = 3;
     dfe:	03 e0       	ldi	r16, 0x03	; 3
     e00:	10 e0       	ldi	r17, 0x00	; 0
     e02:	4c c0       	rjmp	.+152    	; 0xe9c <init_menu+0x498>
			OLED_print("  Highscores");
			OLED_pos(7, 1);
			OLED_print("  Mini-Pong");
			_delay_ms(200);
			while(menynummer == 2){
				joy_pos = JOY_getDirection();
     e04:	0e 94 b6 03 	call	0x76c	; 0x76c <JOY_getDirection>
     e08:	60 93 40 04 	sts	0x0440, r22	; 0x800440 <joy_pos>
     e0c:	70 93 41 04 	sts	0x0441, r23	; 0x800441 <joy_pos+0x1>
     e10:	80 93 42 04 	sts	0x0442, r24	; 0x800442 <joy_pos+0x2>
     e14:	90 93 43 04 	sts	0x0443, r25	; 0x800443 <joy_pos+0x3>
     e18:	ee ed       	ldi	r30, 0xDE	; 222
     e1a:	ff ee       	ldi	r31, 0xEF	; 239
     e1c:	31 97       	sbiw	r30, 0x01	; 1
     e1e:	f1 f7       	brne	.-4      	; 0xe1c <init_menu+0x418>
				_delay_ms(50);
				if (joy_pos.dir == 2){
     e20:	80 91 42 04 	lds	r24, 0x0442	; 0x800442 <joy_pos+0x2>
     e24:	82 30       	cpi	r24, 0x02	; 2
     e26:	29 f4       	brne	.+10     	; 0xe32 <init_menu+0x42e>
					menynummer = 3;
     e28:	10 93 18 04 	sts	0x0418, r17	; 0x800418 <menynummer+0x1>
     e2c:	00 93 17 04 	sts	0x0417, r16	; 0x800417 <menynummer>
     e30:	35 c0       	rjmp	.+106    	; 0xe9c <init_menu+0x498>
				}
				else if (joy_pos.dir == 1){
     e32:	81 30       	cpi	r24, 0x01	; 1
     e34:	39 f4       	brne	.+14     	; 0xe44 <init_menu+0x440>
					menynummer = 1;
     e36:	81 e0       	ldi	r24, 0x01	; 1
     e38:	90 e0       	ldi	r25, 0x00	; 0
     e3a:	90 93 18 04 	sts	0x0418, r25	; 0x800418 <menynummer+0x1>
     e3e:	80 93 17 04 	sts	0x0417, r24	; 0x800417 <menynummer>
     e42:	2c c0       	rjmp	.+88     	; 0xe9c <init_menu+0x498>
				}
				else if (joy_button(1) == 0 && vanskelighetsgrad == 1){
     e44:	81 e0       	ldi	r24, 0x01	; 1
     e46:	90 e0       	ldi	r25, 0x00	; 0
     e48:	0e 94 3d 03 	call	0x67a	; 0x67a <joy_button>
     e4c:	89 2b       	or	r24, r25
     e4e:	49 f4       	brne	.+18     	; 0xe62 <init_menu+0x45e>
     e50:	80 91 24 01 	lds	r24, 0x0124	; 0x800124 <vanskelighetsgrad>
     e54:	81 30       	cpi	r24, 0x01	; 1
     e56:	29 f4       	brne	.+10     	; 0xe62 <init_menu+0x45e>
					menynummer = 5;
     e58:	f0 92 18 04 	sts	0x0418, r15	; 0x800418 <menynummer+0x1>
     e5c:	e0 92 17 04 	sts	0x0417, r14	; 0x800417 <menynummer>
     e60:	1d c0       	rjmp	.+58     	; 0xe9c <init_menu+0x498>
				}
				else if (joy_button(1) == 0 && vanskelighetsgrad == 2){
     e62:	81 e0       	ldi	r24, 0x01	; 1
     e64:	90 e0       	ldi	r25, 0x00	; 0
     e66:	0e 94 3d 03 	call	0x67a	; 0x67a <joy_button>
     e6a:	89 2b       	or	r24, r25
     e6c:	49 f4       	brne	.+18     	; 0xe80 <init_menu+0x47c>
     e6e:	80 91 24 01 	lds	r24, 0x0124	; 0x800124 <vanskelighetsgrad>
     e72:	82 30       	cpi	r24, 0x02	; 2
     e74:	29 f4       	brne	.+10     	; 0xe80 <init_menu+0x47c>
					menynummer = 9;
     e76:	d0 92 18 04 	sts	0x0418, r13	; 0x800418 <menynummer+0x1>
     e7a:	c0 92 17 04 	sts	0x0417, r12	; 0x800417 <menynummer>
     e7e:	0e c0       	rjmp	.+28     	; 0xe9c <init_menu+0x498>
				}
				else if (joy_button(1) == 0 && vanskelighetsgrad == 3){
     e80:	81 e0       	ldi	r24, 0x01	; 1
     e82:	90 e0       	ldi	r25, 0x00	; 0
     e84:	0e 94 3d 03 	call	0x67a	; 0x67a <joy_button>
     e88:	89 2b       	or	r24, r25
     e8a:	41 f4       	brne	.+16     	; 0xe9c <init_menu+0x498>
     e8c:	80 91 24 01 	lds	r24, 0x0124	; 0x800124 <vanskelighetsgrad>
     e90:	83 30       	cpi	r24, 0x03	; 3
     e92:	21 f4       	brne	.+8      	; 0xe9c <init_menu+0x498>
					menynummer = 13;
     e94:	b0 92 18 04 	sts	0x0418, r11	; 0x800418 <menynummer+0x1>
     e98:	a0 92 17 04 	sts	0x0417, r10	; 0x800417 <menynummer>
			OLED_pos(5, 1);
			OLED_print("  Highscores");
			OLED_pos(7, 1);
			OLED_print("  Mini-Pong");
			_delay_ms(200);
			while(menynummer == 2){
     e9c:	80 91 17 04 	lds	r24, 0x0417	; 0x800417 <menynummer>
     ea0:	90 91 18 04 	lds	r25, 0x0418	; 0x800418 <menynummer+0x1>
     ea4:	02 97       	sbiw	r24, 0x02	; 2
     ea6:	09 f4       	brne	.+2      	; 0xeaa <init_menu+0x4a6>
     ea8:	ad cf       	rjmp	.-166    	; 0xe04 <init_menu+0x400>
     eaa:	0c 94 54 11 	jmp	0x22a8	; 0x22a8 <init_menu+0x18a4>
					menynummer = 13;
				}
			}
			break;
		case 3 : // Main menu - Highscores
			OLED_clear();
     eae:	0e 94 f0 11 	call	0x23e0	; 0x23e0 <OLED_clear>
			OLED_pos(1, 1);
     eb2:	61 e0       	ldi	r22, 0x01	; 1
     eb4:	81 e0       	ldi	r24, 0x01	; 1
     eb6:	0e 94 c3 11 	call	0x2386	; 0x2386 <OLED_pos>
			OLED_print("  Start game");
     eba:	8f e5       	ldi	r24, 0x5F	; 95
     ebc:	92 e0       	ldi	r25, 0x02	; 2
     ebe:	0e 94 bd 12 	call	0x257a	; 0x257a <OLED_print>
			OLED_pos(3, 1);
     ec2:	61 e0       	ldi	r22, 0x01	; 1
     ec4:	83 e0       	ldi	r24, 0x03	; 3
     ec6:	0e 94 c3 11 	call	0x2386	; 0x2386 <OLED_pos>
			OLED_print("  Difficulty");
     eca:	89 e3       	ldi	r24, 0x39	; 57
     ecc:	92 e0       	ldi	r25, 0x02	; 2
     ece:	0e 94 bd 12 	call	0x257a	; 0x257a <OLED_print>
			OLED_pos(5, 1);
     ed2:	61 e0       	ldi	r22, 0x01	; 1
     ed4:	85 e0       	ldi	r24, 0x05	; 5
     ed6:	0e 94 c3 11 	call	0x2386	; 0x2386 <OLED_pos>
			OLED_print("* Highscores");
     eda:	89 e7       	ldi	r24, 0x79	; 121
     edc:	92 e0       	ldi	r25, 0x02	; 2
     ede:	0e 94 bd 12 	call	0x257a	; 0x257a <OLED_print>
			OLED_pos(7, 1);
     ee2:	61 e0       	ldi	r22, 0x01	; 1
     ee4:	87 e0       	ldi	r24, 0x07	; 7
     ee6:	0e 94 c3 11 	call	0x2386	; 0x2386 <OLED_pos>
			OLED_print("  Mini-Pong");
     eea:	83 e5       	ldi	r24, 0x53	; 83
     eec:	92 e0       	ldi	r25, 0x02	; 2
     eee:	0e 94 bd 12 	call	0x257a	; 0x257a <OLED_print>
     ef2:	f3 e9       	ldi	r31, 0x93	; 147
     ef4:	2f ef       	ldi	r18, 0xFF	; 255
     ef6:	32 e0       	ldi	r19, 0x02	; 2
     ef8:	f1 50       	subi	r31, 0x01	; 1
     efa:	20 40       	sbci	r18, 0x00	; 0
     efc:	30 40       	sbci	r19, 0x00	; 0
     efe:	e1 f7       	brne	.-8      	; 0xef8 <init_menu+0x4f4>
     f00:	00 c0       	rjmp	.+0      	; 0xf02 <init_menu+0x4fe>
     f02:	00 00       	nop
				}
				else if (joy_pos.dir == 1){
					menynummer = 2;
				}
				else if (joy_button(1) == 0){
					menynummer = 23;
     f04:	0f 2e       	mov	r0, r31
     f06:	f7 e1       	ldi	r31, 0x17	; 23
     f08:	cf 2e       	mov	r12, r31
     f0a:	d1 2c       	mov	r13, r1
     f0c:	f0 2d       	mov	r31, r0
				_delay_ms(50);
				if (joy_pos.dir == 2){
					menynummer = 4;
				}
				else if (joy_pos.dir == 1){
					menynummer = 2;
     f0e:	02 e0       	ldi	r16, 0x02	; 2
     f10:	10 e0       	ldi	r17, 0x00	; 0
			_delay_ms(200);
			while(menynummer == 3){
				joy_pos = JOY_getDirection();
				_delay_ms(50);
				if (joy_pos.dir == 2){
					menynummer = 4;
     f12:	68 94       	set
     f14:	ee 24       	eor	r14, r14
     f16:	e2 f8       	bld	r14, 2
     f18:	f1 2c       	mov	r15, r1
     f1a:	28 c0       	rjmp	.+80     	; 0xf6c <init_menu+0x568>
			OLED_print("* Highscores");
			OLED_pos(7, 1);
			OLED_print("  Mini-Pong");
			_delay_ms(200);
			while(menynummer == 3){
				joy_pos = JOY_getDirection();
     f1c:	0e 94 b6 03 	call	0x76c	; 0x76c <JOY_getDirection>
     f20:	60 93 40 04 	sts	0x0440, r22	; 0x800440 <joy_pos>
     f24:	70 93 41 04 	sts	0x0441, r23	; 0x800441 <joy_pos+0x1>
     f28:	80 93 42 04 	sts	0x0442, r24	; 0x800442 <joy_pos+0x2>
     f2c:	90 93 43 04 	sts	0x0443, r25	; 0x800443 <joy_pos+0x3>
     f30:	8e ed       	ldi	r24, 0xDE	; 222
     f32:	9f ee       	ldi	r25, 0xEF	; 239
     f34:	01 97       	sbiw	r24, 0x01	; 1
     f36:	f1 f7       	brne	.-4      	; 0xf34 <init_menu+0x530>
				_delay_ms(50);
				if (joy_pos.dir == 2){
     f38:	80 91 42 04 	lds	r24, 0x0442	; 0x800442 <joy_pos+0x2>
     f3c:	82 30       	cpi	r24, 0x02	; 2
     f3e:	29 f4       	brne	.+10     	; 0xf4a <init_menu+0x546>
					menynummer = 4;
     f40:	f0 92 18 04 	sts	0x0418, r15	; 0x800418 <menynummer+0x1>
     f44:	e0 92 17 04 	sts	0x0417, r14	; 0x800417 <menynummer>
     f48:	11 c0       	rjmp	.+34     	; 0xf6c <init_menu+0x568>
				}
				else if (joy_pos.dir == 1){
     f4a:	81 30       	cpi	r24, 0x01	; 1
     f4c:	29 f4       	brne	.+10     	; 0xf58 <init_menu+0x554>
					menynummer = 2;
     f4e:	10 93 18 04 	sts	0x0418, r17	; 0x800418 <menynummer+0x1>
     f52:	00 93 17 04 	sts	0x0417, r16	; 0x800417 <menynummer>
     f56:	0a c0       	rjmp	.+20     	; 0xf6c <init_menu+0x568>
				}
				else if (joy_button(1) == 0){
     f58:	81 e0       	ldi	r24, 0x01	; 1
     f5a:	90 e0       	ldi	r25, 0x00	; 0
     f5c:	0e 94 3d 03 	call	0x67a	; 0x67a <joy_button>
     f60:	89 2b       	or	r24, r25
     f62:	21 f4       	brne	.+8      	; 0xf6c <init_menu+0x568>
					menynummer = 23;
     f64:	d0 92 18 04 	sts	0x0418, r13	; 0x800418 <menynummer+0x1>
     f68:	c0 92 17 04 	sts	0x0417, r12	; 0x800417 <menynummer>
			OLED_pos(5, 1);
			OLED_print("* Highscores");
			OLED_pos(7, 1);
			OLED_print("  Mini-Pong");
			_delay_ms(200);
			while(menynummer == 3){
     f6c:	80 91 17 04 	lds	r24, 0x0417	; 0x800417 <menynummer>
     f70:	90 91 18 04 	lds	r25, 0x0418	; 0x800418 <menynummer+0x1>
     f74:	03 97       	sbiw	r24, 0x03	; 3
     f76:	91 f2       	breq	.-92     	; 0xf1c <init_menu+0x518>
     f78:	0c 94 54 11 	jmp	0x22a8	; 0x22a8 <init_menu+0x18a4>
					menynummer = 23;
				}
			}
			break;
		case 4 : // Main menu - Mini-Pong
			OLED_clear();
     f7c:	0e 94 f0 11 	call	0x23e0	; 0x23e0 <OLED_clear>
			OLED_pos(1, 1);
     f80:	61 e0       	ldi	r22, 0x01	; 1
     f82:	81 e0       	ldi	r24, 0x01	; 1
     f84:	0e 94 c3 11 	call	0x2386	; 0x2386 <OLED_pos>
			OLED_print("  Start game");
     f88:	8f e5       	ldi	r24, 0x5F	; 95
     f8a:	92 e0       	ldi	r25, 0x02	; 2
     f8c:	0e 94 bd 12 	call	0x257a	; 0x257a <OLED_print>
			OLED_pos(3, 1);
     f90:	61 e0       	ldi	r22, 0x01	; 1
     f92:	83 e0       	ldi	r24, 0x03	; 3
     f94:	0e 94 c3 11 	call	0x2386	; 0x2386 <OLED_pos>
			OLED_print("  Difficulty");
     f98:	89 e3       	ldi	r24, 0x39	; 57
     f9a:	92 e0       	ldi	r25, 0x02	; 2
     f9c:	0e 94 bd 12 	call	0x257a	; 0x257a <OLED_print>
			OLED_pos(5, 1);
     fa0:	61 e0       	ldi	r22, 0x01	; 1
     fa2:	85 e0       	ldi	r24, 0x05	; 5
     fa4:	0e 94 c3 11 	call	0x2386	; 0x2386 <OLED_pos>
			OLED_print("  Highscores");
     fa8:	86 e4       	ldi	r24, 0x46	; 70
     faa:	92 e0       	ldi	r25, 0x02	; 2
     fac:	0e 94 bd 12 	call	0x257a	; 0x257a <OLED_print>
			OLED_pos(7, 1);
     fb0:	61 e0       	ldi	r22, 0x01	; 1
     fb2:	87 e0       	ldi	r24, 0x07	; 7
     fb4:	0e 94 c3 11 	call	0x2386	; 0x2386 <OLED_pos>
			OLED_print("* Mini-Pong");
     fb8:	86 e8       	ldi	r24, 0x86	; 134
     fba:	92 e0       	ldi	r25, 0x02	; 2
     fbc:	0e 94 bd 12 	call	0x257a	; 0x257a <OLED_print>
     fc0:	93 e9       	ldi	r25, 0x93	; 147
     fc2:	af ef       	ldi	r26, 0xFF	; 255
     fc4:	b2 e0       	ldi	r27, 0x02	; 2
     fc6:	91 50       	subi	r25, 0x01	; 1
     fc8:	a0 40       	sbci	r26, 0x00	; 0
     fca:	b0 40       	sbci	r27, 0x00	; 0
     fcc:	e1 f7       	brne	.-8      	; 0xfc6 <init_menu+0x5c2>
     fce:	00 c0       	rjmp	.+0      	; 0xfd0 <init_menu+0x5cc>
     fd0:	00 00       	nop
				}
				else if (joy_pos.dir == 1){
					menynummer = 3;
				}
				else if (joy_button(1) == 0){
					menynummer = 28;
     fd2:	0f 2e       	mov	r0, r31
     fd4:	fc e1       	ldi	r31, 0x1C	; 28
     fd6:	ef 2e       	mov	r14, r31
     fd8:	f1 2c       	mov	r15, r1
     fda:	f0 2d       	mov	r31, r0
				_delay_ms(50);
				if (joy_pos.dir == 2){
					menynummer = 1;
				}
				else if (joy_pos.dir == 1){
					menynummer = 3;
     fdc:	03 e0       	ldi	r16, 0x03	; 3
     fde:	10 e0       	ldi	r17, 0x00	; 0
     fe0:	33 c0       	rjmp	.+102    	; 0x1048 <init_menu+0x644>
			OLED_print("  Highscores");
			OLED_pos(7, 1);
			OLED_print("* Mini-Pong");
			_delay_ms(200);
			while(menynummer == 4){
				joy_pos = JOY_getDirection();
     fe2:	0e 94 b6 03 	call	0x76c	; 0x76c <JOY_getDirection>
     fe6:	60 93 40 04 	sts	0x0440, r22	; 0x800440 <joy_pos>
     fea:	70 93 41 04 	sts	0x0441, r23	; 0x800441 <joy_pos+0x1>
     fee:	80 93 42 04 	sts	0x0442, r24	; 0x800442 <joy_pos+0x2>
     ff2:	90 93 43 04 	sts	0x0443, r25	; 0x800443 <joy_pos+0x3>
     ff6:	ee ed       	ldi	r30, 0xDE	; 222
     ff8:	ff ee       	ldi	r31, 0xEF	; 239
     ffa:	31 97       	sbiw	r30, 0x01	; 1
     ffc:	f1 f7       	brne	.-4      	; 0xffa <init_menu+0x5f6>
				_delay_ms(50);
				if (joy_pos.dir == 2){
     ffe:	80 91 42 04 	lds	r24, 0x0442	; 0x800442 <joy_pos+0x2>
    1002:	82 30       	cpi	r24, 0x02	; 2
    1004:	39 f4       	brne	.+14     	; 0x1014 <init_menu+0x610>
					menynummer = 1;
    1006:	81 e0       	ldi	r24, 0x01	; 1
    1008:	90 e0       	ldi	r25, 0x00	; 0
    100a:	90 93 18 04 	sts	0x0418, r25	; 0x800418 <menynummer+0x1>
    100e:	80 93 17 04 	sts	0x0417, r24	; 0x800417 <menynummer>
    1012:	1a c0       	rjmp	.+52     	; 0x1048 <init_menu+0x644>
				}
				else if (joy_pos.dir == 1){
    1014:	81 30       	cpi	r24, 0x01	; 1
    1016:	29 f4       	brne	.+10     	; 0x1022 <init_menu+0x61e>
					menynummer = 3;
    1018:	10 93 18 04 	sts	0x0418, r17	; 0x800418 <menynummer+0x1>
    101c:	00 93 17 04 	sts	0x0417, r16	; 0x800417 <menynummer>
    1020:	13 c0       	rjmp	.+38     	; 0x1048 <init_menu+0x644>
				}
				else if (joy_button(1) == 0){
    1022:	81 e0       	ldi	r24, 0x01	; 1
    1024:	90 e0       	ldi	r25, 0x00	; 0
    1026:	0e 94 3d 03 	call	0x67a	; 0x67a <joy_button>
    102a:	89 2b       	or	r24, r25
    102c:	69 f4       	brne	.+26     	; 0x1048 <init_menu+0x644>
					menynummer = 28;
    102e:	f0 92 18 04 	sts	0x0418, r15	; 0x800418 <menynummer+0x1>
    1032:	e0 92 17 04 	sts	0x0417, r14	; 0x800417 <menynummer>
    1036:	fe ea       	ldi	r31, 0xAE	; 174
    1038:	2f e3       	ldi	r18, 0x3F	; 63
    103a:	32 e0       	ldi	r19, 0x02	; 2
    103c:	f1 50       	subi	r31, 0x01	; 1
    103e:	20 40       	sbci	r18, 0x00	; 0
    1040:	30 40       	sbci	r19, 0x00	; 0
    1042:	e1 f7       	brne	.-8      	; 0x103c <init_menu+0x638>
    1044:	00 c0       	rjmp	.+0      	; 0x1046 <init_menu+0x642>
    1046:	00 00       	nop
			OLED_pos(5, 1);
			OLED_print("  Highscores");
			OLED_pos(7, 1);
			OLED_print("* Mini-Pong");
			_delay_ms(200);
			while(menynummer == 4){
    1048:	80 91 17 04 	lds	r24, 0x0417	; 0x800417 <menynummer>
    104c:	90 91 18 04 	lds	r25, 0x0418	; 0x800418 <menynummer+0x1>
    1050:	04 97       	sbiw	r24, 0x04	; 4
    1052:	39 f2       	breq	.-114    	; 0xfe2 <init_menu+0x5de>
    1054:	0c 94 54 11 	jmp	0x22a8	; 0x22a8 <init_menu+0x18a4>
					_delay_ms(150);
				}
			}
			break;
		case 5 : // Submenu difficulty - EASY-EASY
			OLED_clear();
    1058:	0e 94 f0 11 	call	0x23e0	; 0x23e0 <OLED_clear>
			OLED_pos(1, 1);
    105c:	61 e0       	ldi	r22, 0x01	; 1
    105e:	81 e0       	ldi	r24, 0x01	; 1
    1060:	0e 94 c3 11 	call	0x2386	; 0x2386 <OLED_pos>
			OLED_print("*>Easy<");
    1064:	82 e9       	ldi	r24, 0x92	; 146
    1066:	92 e0       	ldi	r25, 0x02	; 2
    1068:	0e 94 bd 12 	call	0x257a	; 0x257a <OLED_print>
			OLED_pos(3, 1);
    106c:	61 e0       	ldi	r22, 0x01	; 1
    106e:	83 e0       	ldi	r24, 0x03	; 3
    1070:	0e 94 c3 11 	call	0x2386	; 0x2386 <OLED_pos>
			OLED_print("  Medium");
    1074:	8a e9       	ldi	r24, 0x9A	; 154
    1076:	92 e0       	ldi	r25, 0x02	; 2
    1078:	0e 94 bd 12 	call	0x257a	; 0x257a <OLED_print>
			OLED_pos(5, 1);
    107c:	61 e0       	ldi	r22, 0x01	; 1
    107e:	85 e0       	ldi	r24, 0x05	; 5
    1080:	0e 94 c3 11 	call	0x2386	; 0x2386 <OLED_pos>
			OLED_print("  Hard");
    1084:	83 ea       	ldi	r24, 0xA3	; 163
    1086:	92 e0       	ldi	r25, 0x02	; 2
    1088:	0e 94 bd 12 	call	0x257a	; 0x257a <OLED_print>
			OLED_pos(7, 1);
    108c:	61 e0       	ldi	r22, 0x01	; 1
    108e:	87 e0       	ldi	r24, 0x07	; 7
    1090:	0e 94 c3 11 	call	0x2386	; 0x2386 <OLED_pos>
			OLED_print("  Back");
    1094:	8a ea       	ldi	r24, 0xAA	; 170
    1096:	92 e0       	ldi	r25, 0x02	; 2
    1098:	0e 94 bd 12 	call	0x257a	; 0x257a <OLED_print>
    109c:	83 e9       	ldi	r24, 0x93	; 147
    109e:	9f ef       	ldi	r25, 0xFF	; 255
    10a0:	a2 e0       	ldi	r26, 0x02	; 2
    10a2:	81 50       	subi	r24, 0x01	; 1
    10a4:	90 40       	sbci	r25, 0x00	; 0
    10a6:	a0 40       	sbci	r26, 0x00	; 0
    10a8:	e1 f7       	brne	.-8      	; 0x10a2 <init_menu+0x69e>
    10aa:	00 c0       	rjmp	.+0      	; 0x10ac <init_menu+0x6a8>
    10ac:	00 00       	nop
				_delay_ms(50);
				if (joy_pos.dir == 2){
					menynummer = 6;
				}
				else if (joy_pos.dir == 1){
					menynummer = 8;
    10ae:	68 94       	set
    10b0:	ee 24       	eor	r14, r14
    10b2:	e3 f8       	bld	r14, 3
    10b4:	f1 2c       	mov	r15, r1
			_delay_ms(200);
			while(menynummer == 5){
				joy_pos = JOY_getDirection();
				_delay_ms(50);
				if (joy_pos.dir == 2){
					menynummer = 6;
    10b6:	06 e0       	ldi	r16, 0x06	; 6
    10b8:	10 e0       	ldi	r17, 0x00	; 0
    10ba:	1d c0       	rjmp	.+58     	; 0x10f6 <init_menu+0x6f2>
			OLED_print("  Hard");
			OLED_pos(7, 1);
			OLED_print("  Back");
			_delay_ms(200);
			while(menynummer == 5){
				joy_pos = JOY_getDirection();
    10bc:	0e 94 b6 03 	call	0x76c	; 0x76c <JOY_getDirection>
    10c0:	60 93 40 04 	sts	0x0440, r22	; 0x800440 <joy_pos>
    10c4:	70 93 41 04 	sts	0x0441, r23	; 0x800441 <joy_pos+0x1>
    10c8:	80 93 42 04 	sts	0x0442, r24	; 0x800442 <joy_pos+0x2>
    10cc:	90 93 43 04 	sts	0x0443, r25	; 0x800443 <joy_pos+0x3>
    10d0:	ee ed       	ldi	r30, 0xDE	; 222
    10d2:	ff ee       	ldi	r31, 0xEF	; 239
    10d4:	31 97       	sbiw	r30, 0x01	; 1
    10d6:	f1 f7       	brne	.-4      	; 0x10d4 <init_menu+0x6d0>
				_delay_ms(50);
				if (joy_pos.dir == 2){
    10d8:	80 91 42 04 	lds	r24, 0x0442	; 0x800442 <joy_pos+0x2>
    10dc:	82 30       	cpi	r24, 0x02	; 2
    10de:	29 f4       	brne	.+10     	; 0x10ea <init_menu+0x6e6>
					menynummer = 6;
    10e0:	10 93 18 04 	sts	0x0418, r17	; 0x800418 <menynummer+0x1>
    10e4:	00 93 17 04 	sts	0x0417, r16	; 0x800417 <menynummer>
    10e8:	06 c0       	rjmp	.+12     	; 0x10f6 <init_menu+0x6f2>
				}
				else if (joy_pos.dir == 1){
    10ea:	81 30       	cpi	r24, 0x01	; 1
    10ec:	21 f4       	brne	.+8      	; 0x10f6 <init_menu+0x6f2>
					menynummer = 8;
    10ee:	f0 92 18 04 	sts	0x0418, r15	; 0x800418 <menynummer+0x1>
    10f2:	e0 92 17 04 	sts	0x0417, r14	; 0x800417 <menynummer>
			OLED_pos(5, 1);
			OLED_print("  Hard");
			OLED_pos(7, 1);
			OLED_print("  Back");
			_delay_ms(200);
			while(menynummer == 5){
    10f6:	80 91 17 04 	lds	r24, 0x0417	; 0x800417 <menynummer>
    10fa:	90 91 18 04 	lds	r25, 0x0418	; 0x800418 <menynummer+0x1>
    10fe:	05 97       	sbiw	r24, 0x05	; 5
    1100:	e9 f2       	breq	.-70     	; 0x10bc <init_menu+0x6b8>
    1102:	0c 94 54 11 	jmp	0x22a8	; 0x22a8 <init_menu+0x18a4>
					menynummer = 8;
				}
			}
			break;
		case 6 : // Submeny difficulty - EASY-MEDIUM
			OLED_clear();
    1106:	0e 94 f0 11 	call	0x23e0	; 0x23e0 <OLED_clear>
			OLED_pos(1, 1);
    110a:	61 e0       	ldi	r22, 0x01	; 1
    110c:	81 e0       	ldi	r24, 0x01	; 1
    110e:	0e 94 c3 11 	call	0x2386	; 0x2386 <OLED_pos>
			OLED_print(" >Easy<");
    1112:	81 eb       	ldi	r24, 0xB1	; 177
    1114:	92 e0       	ldi	r25, 0x02	; 2
    1116:	0e 94 bd 12 	call	0x257a	; 0x257a <OLED_print>
			OLED_pos(3, 1);
    111a:	61 e0       	ldi	r22, 0x01	; 1
    111c:	83 e0       	ldi	r24, 0x03	; 3
    111e:	0e 94 c3 11 	call	0x2386	; 0x2386 <OLED_pos>
			OLED_print("* Medium");
    1122:	89 eb       	ldi	r24, 0xB9	; 185
    1124:	92 e0       	ldi	r25, 0x02	; 2
    1126:	0e 94 bd 12 	call	0x257a	; 0x257a <OLED_print>
			OLED_pos(5, 1);
    112a:	61 e0       	ldi	r22, 0x01	; 1
    112c:	85 e0       	ldi	r24, 0x05	; 5
    112e:	0e 94 c3 11 	call	0x2386	; 0x2386 <OLED_pos>
			OLED_print("  Hard");
    1132:	83 ea       	ldi	r24, 0xA3	; 163
    1134:	92 e0       	ldi	r25, 0x02	; 2
    1136:	0e 94 bd 12 	call	0x257a	; 0x257a <OLED_print>
			OLED_pos(7, 1);
    113a:	61 e0       	ldi	r22, 0x01	; 1
    113c:	87 e0       	ldi	r24, 0x07	; 7
    113e:	0e 94 c3 11 	call	0x2386	; 0x2386 <OLED_pos>
			OLED_print("  Back");
    1142:	8a ea       	ldi	r24, 0xAA	; 170
    1144:	92 e0       	ldi	r25, 0x02	; 2
    1146:	0e 94 bd 12 	call	0x257a	; 0x257a <OLED_print>
    114a:	f3 e9       	ldi	r31, 0x93	; 147
    114c:	2f ef       	ldi	r18, 0xFF	; 255
    114e:	32 e0       	ldi	r19, 0x02	; 2
    1150:	f1 50       	subi	r31, 0x01	; 1
    1152:	20 40       	sbci	r18, 0x00	; 0
    1154:	30 40       	sbci	r19, 0x00	; 0
    1156:	e1 f7       	brne	.-8      	; 0x1150 <init_menu+0x74c>
    1158:	00 c0       	rjmp	.+0      	; 0x115a <init_menu+0x756>
    115a:	00 00       	nop
				}
				else if (joy_pos.dir == 1){
					menynummer = 5;
				}
				else if (joy_button(1) == 0){
					vanskelighetsgrad = 2;
    115c:	68 94       	set
    115e:	bb 24       	eor	r11, r11
    1160:	b1 f8       	bld	r11, 1
					menynummer = 10;
    1162:	0f 2e       	mov	r0, r31
    1164:	fa e0       	ldi	r31, 0x0A	; 10
    1166:	cf 2e       	mov	r12, r31
    1168:	d1 2c       	mov	r13, r1
    116a:	f0 2d       	mov	r31, r0
				_delay_ms(50);
				if (joy_pos.dir == 2){
					menynummer = 7;
				}
				else if (joy_pos.dir == 1){
					menynummer = 5;
    116c:	05 e0       	ldi	r16, 0x05	; 5
    116e:	10 e0       	ldi	r17, 0x00	; 0
			_delay_ms(200);
			while(menynummer == 6){
				joy_pos = JOY_getDirection();
				_delay_ms(50);
				if (joy_pos.dir == 2){
					menynummer = 7;
    1170:	0f 2e       	mov	r0, r31
    1172:	f7 e0       	ldi	r31, 0x07	; 7
    1174:	ef 2e       	mov	r14, r31
    1176:	f1 2c       	mov	r15, r1
    1178:	f0 2d       	mov	r31, r0
    117a:	2a c0       	rjmp	.+84     	; 0x11d0 <init_menu+0x7cc>
			OLED_print("  Hard");
			OLED_pos(7, 1);
			OLED_print("  Back");
			_delay_ms(200);
			while(menynummer == 6){
				joy_pos = JOY_getDirection();
    117c:	0e 94 b6 03 	call	0x76c	; 0x76c <JOY_getDirection>
    1180:	60 93 40 04 	sts	0x0440, r22	; 0x800440 <joy_pos>
    1184:	70 93 41 04 	sts	0x0441, r23	; 0x800441 <joy_pos+0x1>
    1188:	80 93 42 04 	sts	0x0442, r24	; 0x800442 <joy_pos+0x2>
    118c:	90 93 43 04 	sts	0x0443, r25	; 0x800443 <joy_pos+0x3>
    1190:	8e ed       	ldi	r24, 0xDE	; 222
    1192:	9f ee       	ldi	r25, 0xEF	; 239
    1194:	01 97       	sbiw	r24, 0x01	; 1
    1196:	f1 f7       	brne	.-4      	; 0x1194 <init_menu+0x790>
				_delay_ms(50);
				if (joy_pos.dir == 2){
    1198:	80 91 42 04 	lds	r24, 0x0442	; 0x800442 <joy_pos+0x2>
    119c:	82 30       	cpi	r24, 0x02	; 2
    119e:	29 f4       	brne	.+10     	; 0x11aa <init_menu+0x7a6>
					menynummer = 7;
    11a0:	f0 92 18 04 	sts	0x0418, r15	; 0x800418 <menynummer+0x1>
    11a4:	e0 92 17 04 	sts	0x0417, r14	; 0x800417 <menynummer>
    11a8:	13 c0       	rjmp	.+38     	; 0x11d0 <init_menu+0x7cc>
				}
				else if (joy_pos.dir == 1){
    11aa:	81 30       	cpi	r24, 0x01	; 1
    11ac:	29 f4       	brne	.+10     	; 0x11b8 <init_menu+0x7b4>
					menynummer = 5;
    11ae:	10 93 18 04 	sts	0x0418, r17	; 0x800418 <menynummer+0x1>
    11b2:	00 93 17 04 	sts	0x0417, r16	; 0x800417 <menynummer>
    11b6:	0c c0       	rjmp	.+24     	; 0x11d0 <init_menu+0x7cc>
				}
				else if (joy_button(1) == 0){
    11b8:	81 e0       	ldi	r24, 0x01	; 1
    11ba:	90 e0       	ldi	r25, 0x00	; 0
    11bc:	0e 94 3d 03 	call	0x67a	; 0x67a <joy_button>
    11c0:	89 2b       	or	r24, r25
    11c2:	31 f4       	brne	.+12     	; 0x11d0 <init_menu+0x7cc>
					vanskelighetsgrad = 2;
    11c4:	b0 92 24 01 	sts	0x0124, r11	; 0x800124 <vanskelighetsgrad>
					menynummer = 10;
    11c8:	d0 92 18 04 	sts	0x0418, r13	; 0x800418 <menynummer+0x1>
    11cc:	c0 92 17 04 	sts	0x0417, r12	; 0x800417 <menynummer>
			OLED_pos(5, 1);
			OLED_print("  Hard");
			OLED_pos(7, 1);
			OLED_print("  Back");
			_delay_ms(200);
			while(menynummer == 6){
    11d0:	80 91 17 04 	lds	r24, 0x0417	; 0x800417 <menynummer>
    11d4:	90 91 18 04 	lds	r25, 0x0418	; 0x800418 <menynummer+0x1>
    11d8:	06 97       	sbiw	r24, 0x06	; 6
    11da:	81 f2       	breq	.-96     	; 0x117c <init_menu+0x778>
    11dc:	0c 94 54 11 	jmp	0x22a8	; 0x22a8 <init_menu+0x18a4>
					menynummer = 10;
				}
			}
			break;
		case 7 : // Submeny difficulty - EASY-HARD
			OLED_clear();
    11e0:	0e 94 f0 11 	call	0x23e0	; 0x23e0 <OLED_clear>
			OLED_pos(1, 1);
    11e4:	61 e0       	ldi	r22, 0x01	; 1
    11e6:	81 e0       	ldi	r24, 0x01	; 1
    11e8:	0e 94 c3 11 	call	0x2386	; 0x2386 <OLED_pos>
			OLED_print(" >Easy<");
    11ec:	81 eb       	ldi	r24, 0xB1	; 177
    11ee:	92 e0       	ldi	r25, 0x02	; 2
    11f0:	0e 94 bd 12 	call	0x257a	; 0x257a <OLED_print>
			OLED_pos(3, 1);
    11f4:	61 e0       	ldi	r22, 0x01	; 1
    11f6:	83 e0       	ldi	r24, 0x03	; 3
    11f8:	0e 94 c3 11 	call	0x2386	; 0x2386 <OLED_pos>
			OLED_print("  Medium");
    11fc:	8a e9       	ldi	r24, 0x9A	; 154
    11fe:	92 e0       	ldi	r25, 0x02	; 2
    1200:	0e 94 bd 12 	call	0x257a	; 0x257a <OLED_print>
			OLED_pos(5, 1);
    1204:	61 e0       	ldi	r22, 0x01	; 1
    1206:	85 e0       	ldi	r24, 0x05	; 5
    1208:	0e 94 c3 11 	call	0x2386	; 0x2386 <OLED_pos>
			OLED_print("* Hard");
    120c:	82 ec       	ldi	r24, 0xC2	; 194
    120e:	92 e0       	ldi	r25, 0x02	; 2
    1210:	0e 94 bd 12 	call	0x257a	; 0x257a <OLED_print>
			OLED_pos(7, 1);
    1214:	61 e0       	ldi	r22, 0x01	; 1
    1216:	87 e0       	ldi	r24, 0x07	; 7
    1218:	0e 94 c3 11 	call	0x2386	; 0x2386 <OLED_pos>
			OLED_print("  Back");
    121c:	8a ea       	ldi	r24, 0xAA	; 170
    121e:	92 e0       	ldi	r25, 0x02	; 2
    1220:	0e 94 bd 12 	call	0x257a	; 0x257a <OLED_print>
    1224:	93 e9       	ldi	r25, 0x93	; 147
    1226:	af ef       	ldi	r26, 0xFF	; 255
    1228:	b2 e0       	ldi	r27, 0x02	; 2
    122a:	91 50       	subi	r25, 0x01	; 1
    122c:	a0 40       	sbci	r26, 0x00	; 0
    122e:	b0 40       	sbci	r27, 0x00	; 0
    1230:	e1 f7       	brne	.-8      	; 0x122a <init_menu+0x826>
    1232:	00 c0       	rjmp	.+0      	; 0x1234 <init_menu+0x830>
    1234:	00 00       	nop
				}
				else if (joy_pos.dir == 1){
					menynummer = 6;
				}
				else if (joy_button(1) == 0){
					vanskelighetsgrad = 3;
    1236:	0f 2e       	mov	r0, r31
    1238:	f3 e0       	ldi	r31, 0x03	; 3
    123a:	bf 2e       	mov	r11, r31
    123c:	f0 2d       	mov	r31, r0
					menynummer = 15;
    123e:	0f 2e       	mov	r0, r31
    1240:	ff e0       	ldi	r31, 0x0F	; 15
    1242:	cf 2e       	mov	r12, r31
    1244:	d1 2c       	mov	r13, r1
    1246:	f0 2d       	mov	r31, r0
				_delay_ms(50);
				if (joy_pos.dir == 2){
					menynummer = 8;
				}
				else if (joy_pos.dir == 1){
					menynummer = 6;
    1248:	06 e0       	ldi	r16, 0x06	; 6
    124a:	10 e0       	ldi	r17, 0x00	; 0
			_delay_ms(200);
			while(menynummer == 7){
				joy_pos = JOY_getDirection();
				_delay_ms(50);
				if (joy_pos.dir == 2){
					menynummer = 8;
    124c:	68 94       	set
    124e:	ee 24       	eor	r14, r14
    1250:	e3 f8       	bld	r14, 3
    1252:	f1 2c       	mov	r15, r1
    1254:	2a c0       	rjmp	.+84     	; 0x12aa <init_menu+0x8a6>
			OLED_print("* Hard");
			OLED_pos(7, 1);
			OLED_print("  Back");
			_delay_ms(200);
			while(menynummer == 7){
				joy_pos = JOY_getDirection();
    1256:	0e 94 b6 03 	call	0x76c	; 0x76c <JOY_getDirection>
    125a:	60 93 40 04 	sts	0x0440, r22	; 0x800440 <joy_pos>
    125e:	70 93 41 04 	sts	0x0441, r23	; 0x800441 <joy_pos+0x1>
    1262:	80 93 42 04 	sts	0x0442, r24	; 0x800442 <joy_pos+0x2>
    1266:	90 93 43 04 	sts	0x0443, r25	; 0x800443 <joy_pos+0x3>
    126a:	ee ed       	ldi	r30, 0xDE	; 222
    126c:	ff ee       	ldi	r31, 0xEF	; 239
    126e:	31 97       	sbiw	r30, 0x01	; 1
    1270:	f1 f7       	brne	.-4      	; 0x126e <init_menu+0x86a>
				_delay_ms(50);
				if (joy_pos.dir == 2){
    1272:	80 91 42 04 	lds	r24, 0x0442	; 0x800442 <joy_pos+0x2>
    1276:	82 30       	cpi	r24, 0x02	; 2
    1278:	29 f4       	brne	.+10     	; 0x1284 <init_menu+0x880>
					menynummer = 8;
    127a:	f0 92 18 04 	sts	0x0418, r15	; 0x800418 <menynummer+0x1>
    127e:	e0 92 17 04 	sts	0x0417, r14	; 0x800417 <menynummer>
    1282:	13 c0       	rjmp	.+38     	; 0x12aa <init_menu+0x8a6>
				}
				else if (joy_pos.dir == 1){
    1284:	81 30       	cpi	r24, 0x01	; 1
    1286:	29 f4       	brne	.+10     	; 0x1292 <init_menu+0x88e>
					menynummer = 6;
    1288:	10 93 18 04 	sts	0x0418, r17	; 0x800418 <menynummer+0x1>
    128c:	00 93 17 04 	sts	0x0417, r16	; 0x800417 <menynummer>
    1290:	0c c0       	rjmp	.+24     	; 0x12aa <init_menu+0x8a6>
				}
				else if (joy_button(1) == 0){
    1292:	81 e0       	ldi	r24, 0x01	; 1
    1294:	90 e0       	ldi	r25, 0x00	; 0
    1296:	0e 94 3d 03 	call	0x67a	; 0x67a <joy_button>
    129a:	89 2b       	or	r24, r25
    129c:	31 f4       	brne	.+12     	; 0x12aa <init_menu+0x8a6>
					vanskelighetsgrad = 3;
    129e:	b0 92 24 01 	sts	0x0124, r11	; 0x800124 <vanskelighetsgrad>
					menynummer = 15;
    12a2:	d0 92 18 04 	sts	0x0418, r13	; 0x800418 <menynummer+0x1>
    12a6:	c0 92 17 04 	sts	0x0417, r12	; 0x800417 <menynummer>
			OLED_pos(5, 1);
			OLED_print("* Hard");
			OLED_pos(7, 1);
			OLED_print("  Back");
			_delay_ms(200);
			while(menynummer == 7){
    12aa:	80 91 17 04 	lds	r24, 0x0417	; 0x800417 <menynummer>
    12ae:	90 91 18 04 	lds	r25, 0x0418	; 0x800418 <menynummer+0x1>
    12b2:	07 97       	sbiw	r24, 0x07	; 7
    12b4:	81 f2       	breq	.-96     	; 0x1256 <init_menu+0x852>
    12b6:	f8 c7       	rjmp	.+4080   	; 0x22a8 <init_menu+0x18a4>
					menynummer = 15;
				}
			}
			break;
		case 8 : // Submeny difficulty - EASY-RETURN
			OLED_clear();
    12b8:	0e 94 f0 11 	call	0x23e0	; 0x23e0 <OLED_clear>
			OLED_pos(1, 1);
    12bc:	61 e0       	ldi	r22, 0x01	; 1
    12be:	81 e0       	ldi	r24, 0x01	; 1
    12c0:	0e 94 c3 11 	call	0x2386	; 0x2386 <OLED_pos>
			OLED_print(" >Easy<");
    12c4:	81 eb       	ldi	r24, 0xB1	; 177
    12c6:	92 e0       	ldi	r25, 0x02	; 2
    12c8:	0e 94 bd 12 	call	0x257a	; 0x257a <OLED_print>
			OLED_pos(3, 1);
    12cc:	61 e0       	ldi	r22, 0x01	; 1
    12ce:	83 e0       	ldi	r24, 0x03	; 3
    12d0:	0e 94 c3 11 	call	0x2386	; 0x2386 <OLED_pos>
			OLED_print("  Medium");
    12d4:	8a e9       	ldi	r24, 0x9A	; 154
    12d6:	92 e0       	ldi	r25, 0x02	; 2
    12d8:	0e 94 bd 12 	call	0x257a	; 0x257a <OLED_print>
			OLED_pos(5, 1);
    12dc:	61 e0       	ldi	r22, 0x01	; 1
    12de:	85 e0       	ldi	r24, 0x05	; 5
    12e0:	0e 94 c3 11 	call	0x2386	; 0x2386 <OLED_pos>
			OLED_print("  Hard");
    12e4:	83 ea       	ldi	r24, 0xA3	; 163
    12e6:	92 e0       	ldi	r25, 0x02	; 2
    12e8:	0e 94 bd 12 	call	0x257a	; 0x257a <OLED_print>
			OLED_pos(7, 1);
    12ec:	61 e0       	ldi	r22, 0x01	; 1
    12ee:	87 e0       	ldi	r24, 0x07	; 7
    12f0:	0e 94 c3 11 	call	0x2386	; 0x2386 <OLED_pos>
			OLED_print("* Back");
    12f4:	89 ec       	ldi	r24, 0xC9	; 201
    12f6:	92 e0       	ldi	r25, 0x02	; 2
    12f8:	0e 94 bd 12 	call	0x257a	; 0x257a <OLED_print>
    12fc:	f3 e9       	ldi	r31, 0x93	; 147
    12fe:	2f ef       	ldi	r18, 0xFF	; 255
    1300:	32 e0       	ldi	r19, 0x02	; 2
    1302:	f1 50       	subi	r31, 0x01	; 1
    1304:	20 40       	sbci	r18, 0x00	; 0
    1306:	30 40       	sbci	r19, 0x00	; 0
    1308:	e1 f7       	brne	.-8      	; 0x1302 <init_menu+0x8fe>
    130a:	00 c0       	rjmp	.+0      	; 0x130c <init_menu+0x908>
    130c:	00 00       	nop
				_delay_ms(50);
				if (joy_pos.dir == 2){
					menynummer = 5;
				}
				else if (joy_pos.dir == 1){
					menynummer = 7;
    130e:	07 e0       	ldi	r16, 0x07	; 7
    1310:	10 e0       	ldi	r17, 0x00	; 0
			_delay_ms(200);
			while(menynummer == 8){
				joy_pos = JOY_getDirection();
				_delay_ms(50);
				if (joy_pos.dir == 2){
					menynummer = 5;
    1312:	0f 2e       	mov	r0, r31
    1314:	f5 e0       	ldi	r31, 0x05	; 5
    1316:	ef 2e       	mov	r14, r31
    1318:	f1 2c       	mov	r15, r1
    131a:	f0 2d       	mov	r31, r0
    131c:	2a c0       	rjmp	.+84     	; 0x1372 <init_menu+0x96e>
			OLED_print("  Hard");
			OLED_pos(7, 1);
			OLED_print("* Back");
			_delay_ms(200);
			while(menynummer == 8){
				joy_pos = JOY_getDirection();
    131e:	0e 94 b6 03 	call	0x76c	; 0x76c <JOY_getDirection>
    1322:	60 93 40 04 	sts	0x0440, r22	; 0x800440 <joy_pos>
    1326:	70 93 41 04 	sts	0x0441, r23	; 0x800441 <joy_pos+0x1>
    132a:	80 93 42 04 	sts	0x0442, r24	; 0x800442 <joy_pos+0x2>
    132e:	90 93 43 04 	sts	0x0443, r25	; 0x800443 <joy_pos+0x3>
    1332:	8e ed       	ldi	r24, 0xDE	; 222
    1334:	9f ee       	ldi	r25, 0xEF	; 239
    1336:	01 97       	sbiw	r24, 0x01	; 1
    1338:	f1 f7       	brne	.-4      	; 0x1336 <init_menu+0x932>
				_delay_ms(50);
				if (joy_pos.dir == 2){
    133a:	80 91 42 04 	lds	r24, 0x0442	; 0x800442 <joy_pos+0x2>
    133e:	82 30       	cpi	r24, 0x02	; 2
    1340:	29 f4       	brne	.+10     	; 0x134c <init_menu+0x948>
					menynummer = 5;
    1342:	f0 92 18 04 	sts	0x0418, r15	; 0x800418 <menynummer+0x1>
    1346:	e0 92 17 04 	sts	0x0417, r14	; 0x800417 <menynummer>
    134a:	13 c0       	rjmp	.+38     	; 0x1372 <init_menu+0x96e>
				}
				else if (joy_pos.dir == 1){
    134c:	81 30       	cpi	r24, 0x01	; 1
    134e:	29 f4       	brne	.+10     	; 0x135a <init_menu+0x956>
					menynummer = 7;
    1350:	10 93 18 04 	sts	0x0418, r17	; 0x800418 <menynummer+0x1>
    1354:	00 93 17 04 	sts	0x0417, r16	; 0x800417 <menynummer>
    1358:	0c c0       	rjmp	.+24     	; 0x1372 <init_menu+0x96e>
				}
				else if (joy_button(1) == 0){
    135a:	81 e0       	ldi	r24, 0x01	; 1
    135c:	90 e0       	ldi	r25, 0x00	; 0
    135e:	0e 94 3d 03 	call	0x67a	; 0x67a <joy_button>
    1362:	89 2b       	or	r24, r25
    1364:	31 f4       	brne	.+12     	; 0x1372 <init_menu+0x96e>
					menynummer = 1;
    1366:	81 e0       	ldi	r24, 0x01	; 1
    1368:	90 e0       	ldi	r25, 0x00	; 0
    136a:	90 93 18 04 	sts	0x0418, r25	; 0x800418 <menynummer+0x1>
    136e:	80 93 17 04 	sts	0x0417, r24	; 0x800417 <menynummer>
			OLED_pos(5, 1);
			OLED_print("  Hard");
			OLED_pos(7, 1);
			OLED_print("* Back");
			_delay_ms(200);
			while(menynummer == 8){
    1372:	80 91 17 04 	lds	r24, 0x0417	; 0x800417 <menynummer>
    1376:	90 91 18 04 	lds	r25, 0x0418	; 0x800418 <menynummer+0x1>
    137a:	08 97       	sbiw	r24, 0x08	; 8
    137c:	81 f2       	breq	.-96     	; 0x131e <init_menu+0x91a>
    137e:	94 c7       	rjmp	.+3880   	; 0x22a8 <init_menu+0x18a4>
					menynummer = 1;
				}
			}
			break;
		case 9 : // Submeny difficulty - MEDIUM-EASY
			OLED_clear();
    1380:	0e 94 f0 11 	call	0x23e0	; 0x23e0 <OLED_clear>
			OLED_pos(1, 1);
    1384:	61 e0       	ldi	r22, 0x01	; 1
    1386:	81 e0       	ldi	r24, 0x01	; 1
    1388:	0e 94 c3 11 	call	0x2386	; 0x2386 <OLED_pos>
			OLED_print("* Easy");
    138c:	80 ed       	ldi	r24, 0xD0	; 208
    138e:	92 e0       	ldi	r25, 0x02	; 2
    1390:	0e 94 bd 12 	call	0x257a	; 0x257a <OLED_print>
			OLED_pos(3, 1);
    1394:	61 e0       	ldi	r22, 0x01	; 1
    1396:	83 e0       	ldi	r24, 0x03	; 3
    1398:	0e 94 c3 11 	call	0x2386	; 0x2386 <OLED_pos>
			OLED_print(" >Medium<");
    139c:	87 ed       	ldi	r24, 0xD7	; 215
    139e:	92 e0       	ldi	r25, 0x02	; 2
    13a0:	0e 94 bd 12 	call	0x257a	; 0x257a <OLED_print>
			OLED_pos(5, 1);
    13a4:	61 e0       	ldi	r22, 0x01	; 1
    13a6:	85 e0       	ldi	r24, 0x05	; 5
    13a8:	0e 94 c3 11 	call	0x2386	; 0x2386 <OLED_pos>
			OLED_print("  Hard");
    13ac:	83 ea       	ldi	r24, 0xA3	; 163
    13ae:	92 e0       	ldi	r25, 0x02	; 2
    13b0:	0e 94 bd 12 	call	0x257a	; 0x257a <OLED_print>
			OLED_pos(7, 1);
    13b4:	61 e0       	ldi	r22, 0x01	; 1
    13b6:	87 e0       	ldi	r24, 0x07	; 7
    13b8:	0e 94 c3 11 	call	0x2386	; 0x2386 <OLED_pos>
			OLED_print("  Back");
    13bc:	8a ea       	ldi	r24, 0xAA	; 170
    13be:	92 e0       	ldi	r25, 0x02	; 2
    13c0:	0e 94 bd 12 	call	0x257a	; 0x257a <OLED_print>
    13c4:	93 e9       	ldi	r25, 0x93	; 147
    13c6:	af ef       	ldi	r26, 0xFF	; 255
    13c8:	b2 e0       	ldi	r27, 0x02	; 2
    13ca:	91 50       	subi	r25, 0x01	; 1
    13cc:	a0 40       	sbci	r26, 0x00	; 0
    13ce:	b0 40       	sbci	r27, 0x00	; 0
    13d0:	e1 f7       	brne	.-8      	; 0x13ca <init_menu+0x9c6>
    13d2:	00 c0       	rjmp	.+0      	; 0x13d4 <init_menu+0x9d0>
    13d4:	00 00       	nop
				}
				else if (joy_pos.dir == 1){
					menynummer = 12;
				}
				else if (joy_button(1) == 0){
					menynummer = 5;
    13d6:	0f 2e       	mov	r0, r31
    13d8:	f5 e0       	ldi	r31, 0x05	; 5
    13da:	cf 2e       	mov	r12, r31
    13dc:	d1 2c       	mov	r13, r1
    13de:	f0 2d       	mov	r31, r0
					vanskelighetsgrad = 1;
    13e0:	bb 24       	eor	r11, r11
    13e2:	b3 94       	inc	r11
				_delay_ms(50);
				if (joy_pos.dir == 2){
					menynummer = 10;
				}
				else if (joy_pos.dir == 1){
					menynummer = 12;
    13e4:	0c e0       	ldi	r16, 0x0C	; 12
    13e6:	10 e0       	ldi	r17, 0x00	; 0
			_delay_ms(200);
			while(menynummer == 9){
				joy_pos = JOY_getDirection();
				_delay_ms(50);
				if (joy_pos.dir == 2){
					menynummer = 10;
    13e8:	0f 2e       	mov	r0, r31
    13ea:	fa e0       	ldi	r31, 0x0A	; 10
    13ec:	ef 2e       	mov	r14, r31
    13ee:	f1 2c       	mov	r15, r1
    13f0:	f0 2d       	mov	r31, r0
    13f2:	2a c0       	rjmp	.+84     	; 0x1448 <init_menu+0xa44>
			OLED_print("  Hard");
			OLED_pos(7, 1);
			OLED_print("  Back");
			_delay_ms(200);
			while(menynummer == 9){
				joy_pos = JOY_getDirection();
    13f4:	0e 94 b6 03 	call	0x76c	; 0x76c <JOY_getDirection>
    13f8:	60 93 40 04 	sts	0x0440, r22	; 0x800440 <joy_pos>
    13fc:	70 93 41 04 	sts	0x0441, r23	; 0x800441 <joy_pos+0x1>
    1400:	80 93 42 04 	sts	0x0442, r24	; 0x800442 <joy_pos+0x2>
    1404:	90 93 43 04 	sts	0x0443, r25	; 0x800443 <joy_pos+0x3>
    1408:	ee ed       	ldi	r30, 0xDE	; 222
    140a:	ff ee       	ldi	r31, 0xEF	; 239
    140c:	31 97       	sbiw	r30, 0x01	; 1
    140e:	f1 f7       	brne	.-4      	; 0x140c <init_menu+0xa08>
				_delay_ms(50);
				if (joy_pos.dir == 2){
    1410:	80 91 42 04 	lds	r24, 0x0442	; 0x800442 <joy_pos+0x2>
    1414:	82 30       	cpi	r24, 0x02	; 2
    1416:	29 f4       	brne	.+10     	; 0x1422 <init_menu+0xa1e>
					menynummer = 10;
    1418:	f0 92 18 04 	sts	0x0418, r15	; 0x800418 <menynummer+0x1>
    141c:	e0 92 17 04 	sts	0x0417, r14	; 0x800417 <menynummer>
    1420:	13 c0       	rjmp	.+38     	; 0x1448 <init_menu+0xa44>
				}
				else if (joy_pos.dir == 1){
    1422:	81 30       	cpi	r24, 0x01	; 1
    1424:	29 f4       	brne	.+10     	; 0x1430 <init_menu+0xa2c>
					menynummer = 12;
    1426:	10 93 18 04 	sts	0x0418, r17	; 0x800418 <menynummer+0x1>
    142a:	00 93 17 04 	sts	0x0417, r16	; 0x800417 <menynummer>
    142e:	0c c0       	rjmp	.+24     	; 0x1448 <init_menu+0xa44>
				}
				else if (joy_button(1) == 0){
    1430:	81 e0       	ldi	r24, 0x01	; 1
    1432:	90 e0       	ldi	r25, 0x00	; 0
    1434:	0e 94 3d 03 	call	0x67a	; 0x67a <joy_button>
    1438:	89 2b       	or	r24, r25
    143a:	31 f4       	brne	.+12     	; 0x1448 <init_menu+0xa44>
					menynummer = 5;
    143c:	d0 92 18 04 	sts	0x0418, r13	; 0x800418 <menynummer+0x1>
    1440:	c0 92 17 04 	sts	0x0417, r12	; 0x800417 <menynummer>
					vanskelighetsgrad = 1;
    1444:	b0 92 24 01 	sts	0x0124, r11	; 0x800124 <vanskelighetsgrad>
			OLED_pos(5, 1);
			OLED_print("  Hard");
			OLED_pos(7, 1);
			OLED_print("  Back");
			_delay_ms(200);
			while(menynummer == 9){
    1448:	80 91 17 04 	lds	r24, 0x0417	; 0x800417 <menynummer>
    144c:	90 91 18 04 	lds	r25, 0x0418	; 0x800418 <menynummer+0x1>
    1450:	09 97       	sbiw	r24, 0x09	; 9
    1452:	81 f2       	breq	.-96     	; 0x13f4 <init_menu+0x9f0>
    1454:	29 c7       	rjmp	.+3666   	; 0x22a8 <init_menu+0x18a4>
					vanskelighetsgrad = 1;
				}
			}
			break;
		case 10 : // Submeny difficulty - MEDIUM-MEDIUM
			OLED_clear();
    1456:	0e 94 f0 11 	call	0x23e0	; 0x23e0 <OLED_clear>
			OLED_pos(1, 1);
    145a:	61 e0       	ldi	r22, 0x01	; 1
    145c:	81 e0       	ldi	r24, 0x01	; 1
    145e:	0e 94 c3 11 	call	0x2386	; 0x2386 <OLED_pos>
			OLED_print("  Easy");
    1462:	81 ee       	ldi	r24, 0xE1	; 225
    1464:	92 e0       	ldi	r25, 0x02	; 2
    1466:	0e 94 bd 12 	call	0x257a	; 0x257a <OLED_print>
			OLED_pos(3, 1);
    146a:	61 e0       	ldi	r22, 0x01	; 1
    146c:	83 e0       	ldi	r24, 0x03	; 3
    146e:	0e 94 c3 11 	call	0x2386	; 0x2386 <OLED_pos>
			OLED_print("*>Medium<");
    1472:	88 ee       	ldi	r24, 0xE8	; 232
    1474:	92 e0       	ldi	r25, 0x02	; 2
    1476:	0e 94 bd 12 	call	0x257a	; 0x257a <OLED_print>
			OLED_pos(5, 1);
    147a:	61 e0       	ldi	r22, 0x01	; 1
    147c:	85 e0       	ldi	r24, 0x05	; 5
    147e:	0e 94 c3 11 	call	0x2386	; 0x2386 <OLED_pos>
			OLED_print("  Hard");
    1482:	83 ea       	ldi	r24, 0xA3	; 163
    1484:	92 e0       	ldi	r25, 0x02	; 2
    1486:	0e 94 bd 12 	call	0x257a	; 0x257a <OLED_print>
			OLED_pos(7, 1);
    148a:	61 e0       	ldi	r22, 0x01	; 1
    148c:	87 e0       	ldi	r24, 0x07	; 7
    148e:	0e 94 c3 11 	call	0x2386	; 0x2386 <OLED_pos>
			OLED_print("  Back");
    1492:	8a ea       	ldi	r24, 0xAA	; 170
    1494:	92 e0       	ldi	r25, 0x02	; 2
    1496:	0e 94 bd 12 	call	0x257a	; 0x257a <OLED_print>
    149a:	f3 e9       	ldi	r31, 0x93	; 147
    149c:	2f ef       	ldi	r18, 0xFF	; 255
    149e:	32 e0       	ldi	r19, 0x02	; 2
    14a0:	f1 50       	subi	r31, 0x01	; 1
    14a2:	20 40       	sbci	r18, 0x00	; 0
    14a4:	30 40       	sbci	r19, 0x00	; 0
    14a6:	e1 f7       	brne	.-8      	; 0x14a0 <init_menu+0xa9c>
    14a8:	00 c0       	rjmp	.+0      	; 0x14aa <init_menu+0xaa6>
    14aa:	00 00       	nop
				_delay_ms(50);
				if (joy_pos.dir == 2){
					menynummer = 11;
				}
				else if (joy_pos.dir == 1){
					menynummer = 9;
    14ac:	0f 2e       	mov	r0, r31
    14ae:	f9 e0       	ldi	r31, 0x09	; 9
    14b0:	ef 2e       	mov	r14, r31
    14b2:	f1 2c       	mov	r15, r1
    14b4:	f0 2d       	mov	r31, r0
			_delay_ms(200);
			while(menynummer == 10){
				joy_pos = JOY_getDirection();
				_delay_ms(50);
				if (joy_pos.dir == 2){
					menynummer = 11;
    14b6:	0b e0       	ldi	r16, 0x0B	; 11
    14b8:	10 e0       	ldi	r17, 0x00	; 0
    14ba:	1d c0       	rjmp	.+58     	; 0x14f6 <init_menu+0xaf2>
			OLED_print("  Hard");
			OLED_pos(7, 1);
			OLED_print("  Back");
			_delay_ms(200);
			while(menynummer == 10){
				joy_pos = JOY_getDirection();
    14bc:	0e 94 b6 03 	call	0x76c	; 0x76c <JOY_getDirection>
    14c0:	60 93 40 04 	sts	0x0440, r22	; 0x800440 <joy_pos>
    14c4:	70 93 41 04 	sts	0x0441, r23	; 0x800441 <joy_pos+0x1>
    14c8:	80 93 42 04 	sts	0x0442, r24	; 0x800442 <joy_pos+0x2>
    14cc:	90 93 43 04 	sts	0x0443, r25	; 0x800443 <joy_pos+0x3>
    14d0:	8e ed       	ldi	r24, 0xDE	; 222
    14d2:	9f ee       	ldi	r25, 0xEF	; 239
    14d4:	01 97       	sbiw	r24, 0x01	; 1
    14d6:	f1 f7       	brne	.-4      	; 0x14d4 <init_menu+0xad0>
				_delay_ms(50);
				if (joy_pos.dir == 2){
    14d8:	80 91 42 04 	lds	r24, 0x0442	; 0x800442 <joy_pos+0x2>
    14dc:	82 30       	cpi	r24, 0x02	; 2
    14de:	29 f4       	brne	.+10     	; 0x14ea <init_menu+0xae6>
					menynummer = 11;
    14e0:	10 93 18 04 	sts	0x0418, r17	; 0x800418 <menynummer+0x1>
    14e4:	00 93 17 04 	sts	0x0417, r16	; 0x800417 <menynummer>
    14e8:	06 c0       	rjmp	.+12     	; 0x14f6 <init_menu+0xaf2>
				}
				else if (joy_pos.dir == 1){
    14ea:	81 30       	cpi	r24, 0x01	; 1
    14ec:	21 f4       	brne	.+8      	; 0x14f6 <init_menu+0xaf2>
					menynummer = 9;
    14ee:	f0 92 18 04 	sts	0x0418, r15	; 0x800418 <menynummer+0x1>
    14f2:	e0 92 17 04 	sts	0x0417, r14	; 0x800417 <menynummer>
			OLED_pos(5, 1);
			OLED_print("  Hard");
			OLED_pos(7, 1);
			OLED_print("  Back");
			_delay_ms(200);
			while(menynummer == 10){
    14f6:	80 91 17 04 	lds	r24, 0x0417	; 0x800417 <menynummer>
    14fa:	90 91 18 04 	lds	r25, 0x0418	; 0x800418 <menynummer+0x1>
    14fe:	0a 97       	sbiw	r24, 0x0a	; 10
    1500:	e9 f2       	breq	.-70     	; 0x14bc <init_menu+0xab8>
    1502:	d2 c6       	rjmp	.+3492   	; 0x22a8 <init_menu+0x18a4>
					menynummer = 9;
				}
			}
			break;
		case 11 : // Submeny difficulty - MEDIUM-HARD
			OLED_clear();
    1504:	0e 94 f0 11 	call	0x23e0	; 0x23e0 <OLED_clear>
			OLED_pos(1, 1);
    1508:	61 e0       	ldi	r22, 0x01	; 1
    150a:	81 e0       	ldi	r24, 0x01	; 1
    150c:	0e 94 c3 11 	call	0x2386	; 0x2386 <OLED_pos>
			OLED_print("  Easy");
    1510:	81 ee       	ldi	r24, 0xE1	; 225
    1512:	92 e0       	ldi	r25, 0x02	; 2
    1514:	0e 94 bd 12 	call	0x257a	; 0x257a <OLED_print>
			OLED_pos(3, 1);
    1518:	61 e0       	ldi	r22, 0x01	; 1
    151a:	83 e0       	ldi	r24, 0x03	; 3
    151c:	0e 94 c3 11 	call	0x2386	; 0x2386 <OLED_pos>
			OLED_print(" >Medium<");
    1520:	87 ed       	ldi	r24, 0xD7	; 215
    1522:	92 e0       	ldi	r25, 0x02	; 2
    1524:	0e 94 bd 12 	call	0x257a	; 0x257a <OLED_print>
			OLED_pos(5, 1);
    1528:	61 e0       	ldi	r22, 0x01	; 1
    152a:	85 e0       	ldi	r24, 0x05	; 5
    152c:	0e 94 c3 11 	call	0x2386	; 0x2386 <OLED_pos>
			OLED_print("* Hard");
    1530:	82 ec       	ldi	r24, 0xC2	; 194
    1532:	92 e0       	ldi	r25, 0x02	; 2
    1534:	0e 94 bd 12 	call	0x257a	; 0x257a <OLED_print>
			OLED_pos(7, 1);
    1538:	61 e0       	ldi	r22, 0x01	; 1
    153a:	87 e0       	ldi	r24, 0x07	; 7
    153c:	0e 94 c3 11 	call	0x2386	; 0x2386 <OLED_pos>
			OLED_print("  Back");
    1540:	8a ea       	ldi	r24, 0xAA	; 170
    1542:	92 e0       	ldi	r25, 0x02	; 2
    1544:	0e 94 bd 12 	call	0x257a	; 0x257a <OLED_print>
    1548:	93 e9       	ldi	r25, 0x93	; 147
    154a:	af ef       	ldi	r26, 0xFF	; 255
    154c:	b2 e0       	ldi	r27, 0x02	; 2
    154e:	91 50       	subi	r25, 0x01	; 1
    1550:	a0 40       	sbci	r26, 0x00	; 0
    1552:	b0 40       	sbci	r27, 0x00	; 0
    1554:	e1 f7       	brne	.-8      	; 0x154e <init_menu+0xb4a>
    1556:	00 c0       	rjmp	.+0      	; 0x1558 <init_menu+0xb54>
    1558:	00 00       	nop
				}
				else if (joy_pos.dir == 1){
					menynummer = 10;
				}
				else if (joy_button(1) == 0){
					menynummer = 15;
    155a:	0f 2e       	mov	r0, r31
    155c:	ff e0       	ldi	r31, 0x0F	; 15
    155e:	cf 2e       	mov	r12, r31
    1560:	d1 2c       	mov	r13, r1
    1562:	f0 2d       	mov	r31, r0
					vanskelighetsgrad = 3;
    1564:	0f 2e       	mov	r0, r31
    1566:	f3 e0       	ldi	r31, 0x03	; 3
    1568:	bf 2e       	mov	r11, r31
    156a:	f0 2d       	mov	r31, r0
				_delay_ms(50);
				if (joy_pos.dir == 2){
					menynummer = 12;
				}
				else if (joy_pos.dir == 1){
					menynummer = 10;
    156c:	0a e0       	ldi	r16, 0x0A	; 10
    156e:	10 e0       	ldi	r17, 0x00	; 0
			_delay_ms(200);
			while(menynummer == 11){
				joy_pos = JOY_getDirection();
				_delay_ms(50);
				if (joy_pos.dir == 2){
					menynummer = 12;
    1570:	0f 2e       	mov	r0, r31
    1572:	fc e0       	ldi	r31, 0x0C	; 12
    1574:	ef 2e       	mov	r14, r31
    1576:	f1 2c       	mov	r15, r1
    1578:	f0 2d       	mov	r31, r0
    157a:	2a c0       	rjmp	.+84     	; 0x15d0 <init_menu+0xbcc>
			OLED_print("* Hard");
			OLED_pos(7, 1);
			OLED_print("  Back");
			_delay_ms(200);
			while(menynummer == 11){
				joy_pos = JOY_getDirection();
    157c:	0e 94 b6 03 	call	0x76c	; 0x76c <JOY_getDirection>
    1580:	60 93 40 04 	sts	0x0440, r22	; 0x800440 <joy_pos>
    1584:	70 93 41 04 	sts	0x0441, r23	; 0x800441 <joy_pos+0x1>
    1588:	80 93 42 04 	sts	0x0442, r24	; 0x800442 <joy_pos+0x2>
    158c:	90 93 43 04 	sts	0x0443, r25	; 0x800443 <joy_pos+0x3>
    1590:	ee ed       	ldi	r30, 0xDE	; 222
    1592:	ff ee       	ldi	r31, 0xEF	; 239
    1594:	31 97       	sbiw	r30, 0x01	; 1
    1596:	f1 f7       	brne	.-4      	; 0x1594 <init_menu+0xb90>
				_delay_ms(50);
				if (joy_pos.dir == 2){
    1598:	80 91 42 04 	lds	r24, 0x0442	; 0x800442 <joy_pos+0x2>
    159c:	82 30       	cpi	r24, 0x02	; 2
    159e:	29 f4       	brne	.+10     	; 0x15aa <init_menu+0xba6>
					menynummer = 12;
    15a0:	f0 92 18 04 	sts	0x0418, r15	; 0x800418 <menynummer+0x1>
    15a4:	e0 92 17 04 	sts	0x0417, r14	; 0x800417 <menynummer>
    15a8:	13 c0       	rjmp	.+38     	; 0x15d0 <init_menu+0xbcc>
				}
				else if (joy_pos.dir == 1){
    15aa:	81 30       	cpi	r24, 0x01	; 1
    15ac:	29 f4       	brne	.+10     	; 0x15b8 <init_menu+0xbb4>
					menynummer = 10;
    15ae:	10 93 18 04 	sts	0x0418, r17	; 0x800418 <menynummer+0x1>
    15b2:	00 93 17 04 	sts	0x0417, r16	; 0x800417 <menynummer>
    15b6:	0c c0       	rjmp	.+24     	; 0x15d0 <init_menu+0xbcc>
				}
				else if (joy_button(1) == 0){
    15b8:	81 e0       	ldi	r24, 0x01	; 1
    15ba:	90 e0       	ldi	r25, 0x00	; 0
    15bc:	0e 94 3d 03 	call	0x67a	; 0x67a <joy_button>
    15c0:	89 2b       	or	r24, r25
    15c2:	31 f4       	brne	.+12     	; 0x15d0 <init_menu+0xbcc>
					menynummer = 15;
    15c4:	d0 92 18 04 	sts	0x0418, r13	; 0x800418 <menynummer+0x1>
    15c8:	c0 92 17 04 	sts	0x0417, r12	; 0x800417 <menynummer>
					vanskelighetsgrad = 3;
    15cc:	b0 92 24 01 	sts	0x0124, r11	; 0x800124 <vanskelighetsgrad>
			OLED_pos(5, 1);
			OLED_print("* Hard");
			OLED_pos(7, 1);
			OLED_print("  Back");
			_delay_ms(200);
			while(menynummer == 11){
    15d0:	80 91 17 04 	lds	r24, 0x0417	; 0x800417 <menynummer>
    15d4:	90 91 18 04 	lds	r25, 0x0418	; 0x800418 <menynummer+0x1>
    15d8:	0b 97       	sbiw	r24, 0x0b	; 11
    15da:	81 f2       	breq	.-96     	; 0x157c <init_menu+0xb78>
    15dc:	65 c6       	rjmp	.+3274   	; 0x22a8 <init_menu+0x18a4>
					vanskelighetsgrad = 3;
				}
			}
			break;
		case 12 : // Submeny difficulty - MEDIUM-RETURN
			OLED_clear();
    15de:	0e 94 f0 11 	call	0x23e0	; 0x23e0 <OLED_clear>
			OLED_pos(1, 1);
    15e2:	61 e0       	ldi	r22, 0x01	; 1
    15e4:	81 e0       	ldi	r24, 0x01	; 1
    15e6:	0e 94 c3 11 	call	0x2386	; 0x2386 <OLED_pos>
			OLED_print("  Easy");
    15ea:	81 ee       	ldi	r24, 0xE1	; 225
    15ec:	92 e0       	ldi	r25, 0x02	; 2
    15ee:	0e 94 bd 12 	call	0x257a	; 0x257a <OLED_print>
			OLED_pos(3, 1);
    15f2:	61 e0       	ldi	r22, 0x01	; 1
    15f4:	83 e0       	ldi	r24, 0x03	; 3
    15f6:	0e 94 c3 11 	call	0x2386	; 0x2386 <OLED_pos>
			OLED_print(" >Medium<");
    15fa:	87 ed       	ldi	r24, 0xD7	; 215
    15fc:	92 e0       	ldi	r25, 0x02	; 2
    15fe:	0e 94 bd 12 	call	0x257a	; 0x257a <OLED_print>
			OLED_pos(5, 1);
    1602:	61 e0       	ldi	r22, 0x01	; 1
    1604:	85 e0       	ldi	r24, 0x05	; 5
    1606:	0e 94 c3 11 	call	0x2386	; 0x2386 <OLED_pos>
			OLED_print("  Hard");
    160a:	83 ea       	ldi	r24, 0xA3	; 163
    160c:	92 e0       	ldi	r25, 0x02	; 2
    160e:	0e 94 bd 12 	call	0x257a	; 0x257a <OLED_print>
			OLED_pos(7, 1);
    1612:	61 e0       	ldi	r22, 0x01	; 1
    1614:	87 e0       	ldi	r24, 0x07	; 7
    1616:	0e 94 c3 11 	call	0x2386	; 0x2386 <OLED_pos>
			OLED_print("* Back");
    161a:	89 ec       	ldi	r24, 0xC9	; 201
    161c:	92 e0       	ldi	r25, 0x02	; 2
    161e:	0e 94 bd 12 	call	0x257a	; 0x257a <OLED_print>
    1622:	f3 e9       	ldi	r31, 0x93	; 147
    1624:	2f ef       	ldi	r18, 0xFF	; 255
    1626:	32 e0       	ldi	r19, 0x02	; 2
    1628:	f1 50       	subi	r31, 0x01	; 1
    162a:	20 40       	sbci	r18, 0x00	; 0
    162c:	30 40       	sbci	r19, 0x00	; 0
    162e:	e1 f7       	brne	.-8      	; 0x1628 <init_menu+0xc24>
    1630:	00 c0       	rjmp	.+0      	; 0x1632 <init_menu+0xc2e>
    1632:	00 00       	nop
				_delay_ms(50);
				if (joy_pos.dir == 2){
					menynummer = 9;
				}
				else if (joy_pos.dir == 1){
					menynummer = 11;
    1634:	0b e0       	ldi	r16, 0x0B	; 11
    1636:	10 e0       	ldi	r17, 0x00	; 0
			_delay_ms(200);
			while(menynummer == 12){
				joy_pos = JOY_getDirection();
				_delay_ms(50);
				if (joy_pos.dir == 2){
					menynummer = 9;
    1638:	0f 2e       	mov	r0, r31
    163a:	f9 e0       	ldi	r31, 0x09	; 9
    163c:	ef 2e       	mov	r14, r31
    163e:	f1 2c       	mov	r15, r1
    1640:	f0 2d       	mov	r31, r0
    1642:	2a c0       	rjmp	.+84     	; 0x1698 <init_menu+0xc94>
			OLED_print("  Hard");
			OLED_pos(7, 1);
			OLED_print("* Back");
			_delay_ms(200);
			while(menynummer == 12){
				joy_pos = JOY_getDirection();
    1644:	0e 94 b6 03 	call	0x76c	; 0x76c <JOY_getDirection>
    1648:	60 93 40 04 	sts	0x0440, r22	; 0x800440 <joy_pos>
    164c:	70 93 41 04 	sts	0x0441, r23	; 0x800441 <joy_pos+0x1>
    1650:	80 93 42 04 	sts	0x0442, r24	; 0x800442 <joy_pos+0x2>
    1654:	90 93 43 04 	sts	0x0443, r25	; 0x800443 <joy_pos+0x3>
    1658:	8e ed       	ldi	r24, 0xDE	; 222
    165a:	9f ee       	ldi	r25, 0xEF	; 239
    165c:	01 97       	sbiw	r24, 0x01	; 1
    165e:	f1 f7       	brne	.-4      	; 0x165c <init_menu+0xc58>
				_delay_ms(50);
				if (joy_pos.dir == 2){
    1660:	80 91 42 04 	lds	r24, 0x0442	; 0x800442 <joy_pos+0x2>
    1664:	82 30       	cpi	r24, 0x02	; 2
    1666:	29 f4       	brne	.+10     	; 0x1672 <init_menu+0xc6e>
					menynummer = 9;
    1668:	f0 92 18 04 	sts	0x0418, r15	; 0x800418 <menynummer+0x1>
    166c:	e0 92 17 04 	sts	0x0417, r14	; 0x800417 <menynummer>
    1670:	13 c0       	rjmp	.+38     	; 0x1698 <init_menu+0xc94>
				}
				else if (joy_pos.dir == 1){
    1672:	81 30       	cpi	r24, 0x01	; 1
    1674:	29 f4       	brne	.+10     	; 0x1680 <init_menu+0xc7c>
					menynummer = 11;
    1676:	10 93 18 04 	sts	0x0418, r17	; 0x800418 <menynummer+0x1>
    167a:	00 93 17 04 	sts	0x0417, r16	; 0x800417 <menynummer>
    167e:	0c c0       	rjmp	.+24     	; 0x1698 <init_menu+0xc94>
				}
				else if (joy_button(1) == 0){
    1680:	81 e0       	ldi	r24, 0x01	; 1
    1682:	90 e0       	ldi	r25, 0x00	; 0
    1684:	0e 94 3d 03 	call	0x67a	; 0x67a <joy_button>
    1688:	89 2b       	or	r24, r25
    168a:	31 f4       	brne	.+12     	; 0x1698 <init_menu+0xc94>
					menynummer = 1;
    168c:	81 e0       	ldi	r24, 0x01	; 1
    168e:	90 e0       	ldi	r25, 0x00	; 0
    1690:	90 93 18 04 	sts	0x0418, r25	; 0x800418 <menynummer+0x1>
    1694:	80 93 17 04 	sts	0x0417, r24	; 0x800417 <menynummer>
			OLED_pos(5, 1);
			OLED_print("  Hard");
			OLED_pos(7, 1);
			OLED_print("* Back");
			_delay_ms(200);
			while(menynummer == 12){
    1698:	80 91 17 04 	lds	r24, 0x0417	; 0x800417 <menynummer>
    169c:	90 91 18 04 	lds	r25, 0x0418	; 0x800418 <menynummer+0x1>
    16a0:	0c 97       	sbiw	r24, 0x0c	; 12
    16a2:	81 f2       	breq	.-96     	; 0x1644 <init_menu+0xc40>
    16a4:	01 c6       	rjmp	.+3074   	; 0x22a8 <init_menu+0x18a4>
					menynummer = 1;
				}
			}
			break;
		case 13 : // Submeny difficulty - HARD-EASY
			OLED_clear();
    16a6:	0e 94 f0 11 	call	0x23e0	; 0x23e0 <OLED_clear>
			OLED_pos(1, 1);
    16aa:	61 e0       	ldi	r22, 0x01	; 1
    16ac:	81 e0       	ldi	r24, 0x01	; 1
    16ae:	0e 94 c3 11 	call	0x2386	; 0x2386 <OLED_pos>
			OLED_print("* Easy");
    16b2:	80 ed       	ldi	r24, 0xD0	; 208
    16b4:	92 e0       	ldi	r25, 0x02	; 2
    16b6:	0e 94 bd 12 	call	0x257a	; 0x257a <OLED_print>
			OLED_pos(3, 1);
    16ba:	61 e0       	ldi	r22, 0x01	; 1
    16bc:	83 e0       	ldi	r24, 0x03	; 3
    16be:	0e 94 c3 11 	call	0x2386	; 0x2386 <OLED_pos>
			OLED_print("  Medium");
    16c2:	8a e9       	ldi	r24, 0x9A	; 154
    16c4:	92 e0       	ldi	r25, 0x02	; 2
    16c6:	0e 94 bd 12 	call	0x257a	; 0x257a <OLED_print>
			OLED_pos(5, 1);
    16ca:	61 e0       	ldi	r22, 0x01	; 1
    16cc:	85 e0       	ldi	r24, 0x05	; 5
    16ce:	0e 94 c3 11 	call	0x2386	; 0x2386 <OLED_pos>
			OLED_print(" >Hard<");
    16d2:	82 ef       	ldi	r24, 0xF2	; 242
    16d4:	92 e0       	ldi	r25, 0x02	; 2
    16d6:	0e 94 bd 12 	call	0x257a	; 0x257a <OLED_print>
			OLED_pos(7, 1);
    16da:	61 e0       	ldi	r22, 0x01	; 1
    16dc:	87 e0       	ldi	r24, 0x07	; 7
    16de:	0e 94 c3 11 	call	0x2386	; 0x2386 <OLED_pos>
			OLED_print("  Back");
    16e2:	8a ea       	ldi	r24, 0xAA	; 170
    16e4:	92 e0       	ldi	r25, 0x02	; 2
    16e6:	0e 94 bd 12 	call	0x257a	; 0x257a <OLED_print>
    16ea:	93 e9       	ldi	r25, 0x93	; 147
    16ec:	af ef       	ldi	r26, 0xFF	; 255
    16ee:	b2 e0       	ldi	r27, 0x02	; 2
    16f0:	91 50       	subi	r25, 0x01	; 1
    16f2:	a0 40       	sbci	r26, 0x00	; 0
    16f4:	b0 40       	sbci	r27, 0x00	; 0
    16f6:	e1 f7       	brne	.-8      	; 0x16f0 <init_menu+0xcec>
    16f8:	00 c0       	rjmp	.+0      	; 0x16fa <init_menu+0xcf6>
    16fa:	00 00       	nop
				}
				else if (joy_pos.dir == 1){
					menynummer = 16;
				}
				else if (joy_button(1) == 0){
					menynummer = 5;
    16fc:	0f 2e       	mov	r0, r31
    16fe:	f5 e0       	ldi	r31, 0x05	; 5
    1700:	cf 2e       	mov	r12, r31
    1702:	d1 2c       	mov	r13, r1
    1704:	f0 2d       	mov	r31, r0
					vanskelighetsgrad = 1;
    1706:	bb 24       	eor	r11, r11
    1708:	b3 94       	inc	r11
				_delay_ms(50);
				if (joy_pos.dir == 2){
					menynummer = 14;
				}
				else if (joy_pos.dir == 1){
					menynummer = 16;
    170a:	00 e1       	ldi	r16, 0x10	; 16
    170c:	10 e0       	ldi	r17, 0x00	; 0
			_delay_ms(200);
			while(menynummer == 13){
				joy_pos = JOY_getDirection();
				_delay_ms(50);
				if (joy_pos.dir == 2){
					menynummer = 14;
    170e:	0f 2e       	mov	r0, r31
    1710:	fe e0       	ldi	r31, 0x0E	; 14
    1712:	ef 2e       	mov	r14, r31
    1714:	f1 2c       	mov	r15, r1
    1716:	f0 2d       	mov	r31, r0
    1718:	2a c0       	rjmp	.+84     	; 0x176e <init_menu+0xd6a>
			OLED_print(" >Hard<");
			OLED_pos(7, 1);
			OLED_print("  Back");
			_delay_ms(200);
			while(menynummer == 13){
				joy_pos = JOY_getDirection();
    171a:	0e 94 b6 03 	call	0x76c	; 0x76c <JOY_getDirection>
    171e:	60 93 40 04 	sts	0x0440, r22	; 0x800440 <joy_pos>
    1722:	70 93 41 04 	sts	0x0441, r23	; 0x800441 <joy_pos+0x1>
    1726:	80 93 42 04 	sts	0x0442, r24	; 0x800442 <joy_pos+0x2>
    172a:	90 93 43 04 	sts	0x0443, r25	; 0x800443 <joy_pos+0x3>
    172e:	ee ed       	ldi	r30, 0xDE	; 222
    1730:	ff ee       	ldi	r31, 0xEF	; 239
    1732:	31 97       	sbiw	r30, 0x01	; 1
    1734:	f1 f7       	brne	.-4      	; 0x1732 <init_menu+0xd2e>
				_delay_ms(50);
				if (joy_pos.dir == 2){
    1736:	80 91 42 04 	lds	r24, 0x0442	; 0x800442 <joy_pos+0x2>
    173a:	82 30       	cpi	r24, 0x02	; 2
    173c:	29 f4       	brne	.+10     	; 0x1748 <init_menu+0xd44>
					menynummer = 14;
    173e:	f0 92 18 04 	sts	0x0418, r15	; 0x800418 <menynummer+0x1>
    1742:	e0 92 17 04 	sts	0x0417, r14	; 0x800417 <menynummer>
    1746:	13 c0       	rjmp	.+38     	; 0x176e <init_menu+0xd6a>
				}
				else if (joy_pos.dir == 1){
    1748:	81 30       	cpi	r24, 0x01	; 1
    174a:	29 f4       	brne	.+10     	; 0x1756 <init_menu+0xd52>
					menynummer = 16;
    174c:	10 93 18 04 	sts	0x0418, r17	; 0x800418 <menynummer+0x1>
    1750:	00 93 17 04 	sts	0x0417, r16	; 0x800417 <menynummer>
    1754:	0c c0       	rjmp	.+24     	; 0x176e <init_menu+0xd6a>
				}
				else if (joy_button(1) == 0){
    1756:	81 e0       	ldi	r24, 0x01	; 1
    1758:	90 e0       	ldi	r25, 0x00	; 0
    175a:	0e 94 3d 03 	call	0x67a	; 0x67a <joy_button>
    175e:	89 2b       	or	r24, r25
    1760:	31 f4       	brne	.+12     	; 0x176e <init_menu+0xd6a>
					menynummer = 5;
    1762:	d0 92 18 04 	sts	0x0418, r13	; 0x800418 <menynummer+0x1>
    1766:	c0 92 17 04 	sts	0x0417, r12	; 0x800417 <menynummer>
					vanskelighetsgrad = 1;
    176a:	b0 92 24 01 	sts	0x0124, r11	; 0x800124 <vanskelighetsgrad>
			OLED_pos(5, 1);
			OLED_print(" >Hard<");
			OLED_pos(7, 1);
			OLED_print("  Back");
			_delay_ms(200);
			while(menynummer == 13){
    176e:	80 91 17 04 	lds	r24, 0x0417	; 0x800417 <menynummer>
    1772:	90 91 18 04 	lds	r25, 0x0418	; 0x800418 <menynummer+0x1>
    1776:	0d 97       	sbiw	r24, 0x0d	; 13
    1778:	81 f2       	breq	.-96     	; 0x171a <init_menu+0xd16>
    177a:	96 c5       	rjmp	.+2860   	; 0x22a8 <init_menu+0x18a4>
					vanskelighetsgrad = 1;
				}
			}
			break;
		case 14 : // Submeny difficulty - HARD-MEDIUM
			OLED_clear();
    177c:	0e 94 f0 11 	call	0x23e0	; 0x23e0 <OLED_clear>
			OLED_pos(1, 1);
    1780:	61 e0       	ldi	r22, 0x01	; 1
    1782:	81 e0       	ldi	r24, 0x01	; 1
    1784:	0e 94 c3 11 	call	0x2386	; 0x2386 <OLED_pos>
			OLED_print("  Easy");
    1788:	81 ee       	ldi	r24, 0xE1	; 225
    178a:	92 e0       	ldi	r25, 0x02	; 2
    178c:	0e 94 bd 12 	call	0x257a	; 0x257a <OLED_print>
			OLED_pos(3, 1);
    1790:	61 e0       	ldi	r22, 0x01	; 1
    1792:	83 e0       	ldi	r24, 0x03	; 3
    1794:	0e 94 c3 11 	call	0x2386	; 0x2386 <OLED_pos>
			OLED_print("* Medium");
    1798:	89 eb       	ldi	r24, 0xB9	; 185
    179a:	92 e0       	ldi	r25, 0x02	; 2
    179c:	0e 94 bd 12 	call	0x257a	; 0x257a <OLED_print>
			OLED_pos(5, 1);
    17a0:	61 e0       	ldi	r22, 0x01	; 1
    17a2:	85 e0       	ldi	r24, 0x05	; 5
    17a4:	0e 94 c3 11 	call	0x2386	; 0x2386 <OLED_pos>
			OLED_print(" >Hard<");
    17a8:	82 ef       	ldi	r24, 0xF2	; 242
    17aa:	92 e0       	ldi	r25, 0x02	; 2
    17ac:	0e 94 bd 12 	call	0x257a	; 0x257a <OLED_print>
			OLED_pos(7, 1);
    17b0:	61 e0       	ldi	r22, 0x01	; 1
    17b2:	87 e0       	ldi	r24, 0x07	; 7
    17b4:	0e 94 c3 11 	call	0x2386	; 0x2386 <OLED_pos>
			OLED_print("  Back");
    17b8:	8a ea       	ldi	r24, 0xAA	; 170
    17ba:	92 e0       	ldi	r25, 0x02	; 2
    17bc:	0e 94 bd 12 	call	0x257a	; 0x257a <OLED_print>
    17c0:	f3 e9       	ldi	r31, 0x93	; 147
    17c2:	2f ef       	ldi	r18, 0xFF	; 255
    17c4:	32 e0       	ldi	r19, 0x02	; 2
    17c6:	f1 50       	subi	r31, 0x01	; 1
    17c8:	20 40       	sbci	r18, 0x00	; 0
    17ca:	30 40       	sbci	r19, 0x00	; 0
    17cc:	e1 f7       	brne	.-8      	; 0x17c6 <init_menu+0xdc2>
    17ce:	00 c0       	rjmp	.+0      	; 0x17d0 <init_menu+0xdcc>
    17d0:	00 00       	nop
				}
				else if (joy_pos.dir == 1){
					menynummer = 13;
				}
				else if (joy_button(1) == 0){
					menynummer = 10;
    17d2:	0f 2e       	mov	r0, r31
    17d4:	fa e0       	ldi	r31, 0x0A	; 10
    17d6:	cf 2e       	mov	r12, r31
    17d8:	d1 2c       	mov	r13, r1
    17da:	f0 2d       	mov	r31, r0
					vanskelighetsgrad = 2;
    17dc:	68 94       	set
    17de:	bb 24       	eor	r11, r11
    17e0:	b1 f8       	bld	r11, 1
				_delay_ms(50);
				if (joy_pos.dir == 2){
					menynummer = 15;
				}
				else if (joy_pos.dir == 1){
					menynummer = 13;
    17e2:	0d e0       	ldi	r16, 0x0D	; 13
    17e4:	10 e0       	ldi	r17, 0x00	; 0
			_delay_ms(200);
			while(menynummer == 14){
				joy_pos = JOY_getDirection();
				_delay_ms(50);
				if (joy_pos.dir == 2){
					menynummer = 15;
    17e6:	0f 2e       	mov	r0, r31
    17e8:	ff e0       	ldi	r31, 0x0F	; 15
    17ea:	ef 2e       	mov	r14, r31
    17ec:	f1 2c       	mov	r15, r1
    17ee:	f0 2d       	mov	r31, r0
    17f0:	2a c0       	rjmp	.+84     	; 0x1846 <init_menu+0xe42>
			OLED_print(" >Hard<");
			OLED_pos(7, 1);
			OLED_print("  Back");
			_delay_ms(200);
			while(menynummer == 14){
				joy_pos = JOY_getDirection();
    17f2:	0e 94 b6 03 	call	0x76c	; 0x76c <JOY_getDirection>
    17f6:	60 93 40 04 	sts	0x0440, r22	; 0x800440 <joy_pos>
    17fa:	70 93 41 04 	sts	0x0441, r23	; 0x800441 <joy_pos+0x1>
    17fe:	80 93 42 04 	sts	0x0442, r24	; 0x800442 <joy_pos+0x2>
    1802:	90 93 43 04 	sts	0x0443, r25	; 0x800443 <joy_pos+0x3>
    1806:	8e ed       	ldi	r24, 0xDE	; 222
    1808:	9f ee       	ldi	r25, 0xEF	; 239
    180a:	01 97       	sbiw	r24, 0x01	; 1
    180c:	f1 f7       	brne	.-4      	; 0x180a <init_menu+0xe06>
				_delay_ms(50);
				if (joy_pos.dir == 2){
    180e:	80 91 42 04 	lds	r24, 0x0442	; 0x800442 <joy_pos+0x2>
    1812:	82 30       	cpi	r24, 0x02	; 2
    1814:	29 f4       	brne	.+10     	; 0x1820 <init_menu+0xe1c>
					menynummer = 15;
    1816:	f0 92 18 04 	sts	0x0418, r15	; 0x800418 <menynummer+0x1>
    181a:	e0 92 17 04 	sts	0x0417, r14	; 0x800417 <menynummer>
    181e:	13 c0       	rjmp	.+38     	; 0x1846 <init_menu+0xe42>
				}
				else if (joy_pos.dir == 1){
    1820:	81 30       	cpi	r24, 0x01	; 1
    1822:	29 f4       	brne	.+10     	; 0x182e <init_menu+0xe2a>
					menynummer = 13;
    1824:	10 93 18 04 	sts	0x0418, r17	; 0x800418 <menynummer+0x1>
    1828:	00 93 17 04 	sts	0x0417, r16	; 0x800417 <menynummer>
    182c:	0c c0       	rjmp	.+24     	; 0x1846 <init_menu+0xe42>
				}
				else if (joy_button(1) == 0){
    182e:	81 e0       	ldi	r24, 0x01	; 1
    1830:	90 e0       	ldi	r25, 0x00	; 0
    1832:	0e 94 3d 03 	call	0x67a	; 0x67a <joy_button>
    1836:	89 2b       	or	r24, r25
    1838:	31 f4       	brne	.+12     	; 0x1846 <init_menu+0xe42>
					menynummer = 10;
    183a:	d0 92 18 04 	sts	0x0418, r13	; 0x800418 <menynummer+0x1>
    183e:	c0 92 17 04 	sts	0x0417, r12	; 0x800417 <menynummer>
					vanskelighetsgrad = 2;
    1842:	b0 92 24 01 	sts	0x0124, r11	; 0x800124 <vanskelighetsgrad>
			OLED_pos(5, 1);
			OLED_print(" >Hard<");
			OLED_pos(7, 1);
			OLED_print("  Back");
			_delay_ms(200);
			while(menynummer == 14){
    1846:	80 91 17 04 	lds	r24, 0x0417	; 0x800417 <menynummer>
    184a:	90 91 18 04 	lds	r25, 0x0418	; 0x800418 <menynummer+0x1>
    184e:	0e 97       	sbiw	r24, 0x0e	; 14
    1850:	81 f2       	breq	.-96     	; 0x17f2 <init_menu+0xdee>
    1852:	2a c5       	rjmp	.+2644   	; 0x22a8 <init_menu+0x18a4>
					vanskelighetsgrad = 2;
				}
			}
			break;
		case 15 : // Submeny difficulty - HARD-HARD
			OLED_clear();
    1854:	0e 94 f0 11 	call	0x23e0	; 0x23e0 <OLED_clear>
			OLED_pos(1, 1);
    1858:	61 e0       	ldi	r22, 0x01	; 1
    185a:	81 e0       	ldi	r24, 0x01	; 1
    185c:	0e 94 c3 11 	call	0x2386	; 0x2386 <OLED_pos>
			OLED_print("  Easy");
    1860:	81 ee       	ldi	r24, 0xE1	; 225
    1862:	92 e0       	ldi	r25, 0x02	; 2
    1864:	0e 94 bd 12 	call	0x257a	; 0x257a <OLED_print>
			OLED_pos(3, 1);
    1868:	61 e0       	ldi	r22, 0x01	; 1
    186a:	83 e0       	ldi	r24, 0x03	; 3
    186c:	0e 94 c3 11 	call	0x2386	; 0x2386 <OLED_pos>
			OLED_print("  Medium");
    1870:	8a e9       	ldi	r24, 0x9A	; 154
    1872:	92 e0       	ldi	r25, 0x02	; 2
    1874:	0e 94 bd 12 	call	0x257a	; 0x257a <OLED_print>
			OLED_pos(5, 1);
    1878:	61 e0       	ldi	r22, 0x01	; 1
    187a:	85 e0       	ldi	r24, 0x05	; 5
    187c:	0e 94 c3 11 	call	0x2386	; 0x2386 <OLED_pos>
			OLED_print("*>Hard<");
    1880:	8a ef       	ldi	r24, 0xFA	; 250
    1882:	92 e0       	ldi	r25, 0x02	; 2
    1884:	0e 94 bd 12 	call	0x257a	; 0x257a <OLED_print>
			OLED_pos(7, 1);
    1888:	61 e0       	ldi	r22, 0x01	; 1
    188a:	87 e0       	ldi	r24, 0x07	; 7
    188c:	0e 94 c3 11 	call	0x2386	; 0x2386 <OLED_pos>
			OLED_print("  Back");
    1890:	8a ea       	ldi	r24, 0xAA	; 170
    1892:	92 e0       	ldi	r25, 0x02	; 2
    1894:	0e 94 bd 12 	call	0x257a	; 0x257a <OLED_print>
    1898:	93 e9       	ldi	r25, 0x93	; 147
    189a:	af ef       	ldi	r26, 0xFF	; 255
    189c:	b2 e0       	ldi	r27, 0x02	; 2
    189e:	91 50       	subi	r25, 0x01	; 1
    18a0:	a0 40       	sbci	r26, 0x00	; 0
    18a2:	b0 40       	sbci	r27, 0x00	; 0
    18a4:	e1 f7       	brne	.-8      	; 0x189e <init_menu+0xe9a>
    18a6:	00 c0       	rjmp	.+0      	; 0x18a8 <init_menu+0xea4>
    18a8:	00 00       	nop
				_delay_ms(50);
				if (joy_pos.dir == 2){
					menynummer = 16;
				}
				else if (joy_pos.dir == 1){
					menynummer = 14;
    18aa:	0f 2e       	mov	r0, r31
    18ac:	fe e0       	ldi	r31, 0x0E	; 14
    18ae:	ef 2e       	mov	r14, r31
    18b0:	f1 2c       	mov	r15, r1
    18b2:	f0 2d       	mov	r31, r0
			_delay_ms(200);
			while(menynummer == 15){
				joy_pos = JOY_getDirection();
				_delay_ms(50);
				if (joy_pos.dir == 2){
					menynummer = 16;
    18b4:	00 e1       	ldi	r16, 0x10	; 16
    18b6:	10 e0       	ldi	r17, 0x00	; 0
    18b8:	1d c0       	rjmp	.+58     	; 0x18f4 <init_menu+0xef0>
			OLED_print("*>Hard<");
			OLED_pos(7, 1);
			OLED_print("  Back");
			_delay_ms(200);
			while(menynummer == 15){
				joy_pos = JOY_getDirection();
    18ba:	0e 94 b6 03 	call	0x76c	; 0x76c <JOY_getDirection>
    18be:	60 93 40 04 	sts	0x0440, r22	; 0x800440 <joy_pos>
    18c2:	70 93 41 04 	sts	0x0441, r23	; 0x800441 <joy_pos+0x1>
    18c6:	80 93 42 04 	sts	0x0442, r24	; 0x800442 <joy_pos+0x2>
    18ca:	90 93 43 04 	sts	0x0443, r25	; 0x800443 <joy_pos+0x3>
    18ce:	ee ed       	ldi	r30, 0xDE	; 222
    18d0:	ff ee       	ldi	r31, 0xEF	; 239
    18d2:	31 97       	sbiw	r30, 0x01	; 1
    18d4:	f1 f7       	brne	.-4      	; 0x18d2 <init_menu+0xece>
				_delay_ms(50);
				if (joy_pos.dir == 2){
    18d6:	80 91 42 04 	lds	r24, 0x0442	; 0x800442 <joy_pos+0x2>
    18da:	82 30       	cpi	r24, 0x02	; 2
    18dc:	29 f4       	brne	.+10     	; 0x18e8 <init_menu+0xee4>
					menynummer = 16;
    18de:	10 93 18 04 	sts	0x0418, r17	; 0x800418 <menynummer+0x1>
    18e2:	00 93 17 04 	sts	0x0417, r16	; 0x800417 <menynummer>
    18e6:	06 c0       	rjmp	.+12     	; 0x18f4 <init_menu+0xef0>
				}
				else if (joy_pos.dir == 1){
    18e8:	81 30       	cpi	r24, 0x01	; 1
    18ea:	21 f4       	brne	.+8      	; 0x18f4 <init_menu+0xef0>
					menynummer = 14;
    18ec:	f0 92 18 04 	sts	0x0418, r15	; 0x800418 <menynummer+0x1>
    18f0:	e0 92 17 04 	sts	0x0417, r14	; 0x800417 <menynummer>
			OLED_pos(5, 1);
			OLED_print("*>Hard<");
			OLED_pos(7, 1);
			OLED_print("  Back");
			_delay_ms(200);
			while(menynummer == 15){
    18f4:	80 91 17 04 	lds	r24, 0x0417	; 0x800417 <menynummer>
    18f8:	90 91 18 04 	lds	r25, 0x0418	; 0x800418 <menynummer+0x1>
    18fc:	0f 97       	sbiw	r24, 0x0f	; 15
    18fe:	e9 f2       	breq	.-70     	; 0x18ba <init_menu+0xeb6>
    1900:	d3 c4       	rjmp	.+2470   	; 0x22a8 <init_menu+0x18a4>
					menynummer = 14;
				}
			}
			break;
		case 16 : // Submeny difficulty - HARD-RETURN
			OLED_clear();
    1902:	0e 94 f0 11 	call	0x23e0	; 0x23e0 <OLED_clear>
			OLED_pos(1, 1);
    1906:	61 e0       	ldi	r22, 0x01	; 1
    1908:	81 e0       	ldi	r24, 0x01	; 1
    190a:	0e 94 c3 11 	call	0x2386	; 0x2386 <OLED_pos>
			OLED_print("  Easy");
    190e:	81 ee       	ldi	r24, 0xE1	; 225
    1910:	92 e0       	ldi	r25, 0x02	; 2
    1912:	0e 94 bd 12 	call	0x257a	; 0x257a <OLED_print>
			OLED_pos(3, 1);
    1916:	61 e0       	ldi	r22, 0x01	; 1
    1918:	83 e0       	ldi	r24, 0x03	; 3
    191a:	0e 94 c3 11 	call	0x2386	; 0x2386 <OLED_pos>
			OLED_print("  Medium");
    191e:	8a e9       	ldi	r24, 0x9A	; 154
    1920:	92 e0       	ldi	r25, 0x02	; 2
    1922:	0e 94 bd 12 	call	0x257a	; 0x257a <OLED_print>
			OLED_pos(5, 1);
    1926:	61 e0       	ldi	r22, 0x01	; 1
    1928:	85 e0       	ldi	r24, 0x05	; 5
    192a:	0e 94 c3 11 	call	0x2386	; 0x2386 <OLED_pos>
			OLED_print(" >Hard<");
    192e:	82 ef       	ldi	r24, 0xF2	; 242
    1930:	92 e0       	ldi	r25, 0x02	; 2
    1932:	0e 94 bd 12 	call	0x257a	; 0x257a <OLED_print>
			OLED_pos(7, 1);
    1936:	61 e0       	ldi	r22, 0x01	; 1
    1938:	87 e0       	ldi	r24, 0x07	; 7
    193a:	0e 94 c3 11 	call	0x2386	; 0x2386 <OLED_pos>
			OLED_print("* Back");
    193e:	89 ec       	ldi	r24, 0xC9	; 201
    1940:	92 e0       	ldi	r25, 0x02	; 2
    1942:	0e 94 bd 12 	call	0x257a	; 0x257a <OLED_print>
    1946:	f3 e9       	ldi	r31, 0x93	; 147
    1948:	2f ef       	ldi	r18, 0xFF	; 255
    194a:	32 e0       	ldi	r19, 0x02	; 2
    194c:	f1 50       	subi	r31, 0x01	; 1
    194e:	20 40       	sbci	r18, 0x00	; 0
    1950:	30 40       	sbci	r19, 0x00	; 0
    1952:	e1 f7       	brne	.-8      	; 0x194c <init_menu+0xf48>
    1954:	00 c0       	rjmp	.+0      	; 0x1956 <init_menu+0xf52>
    1956:	00 00       	nop
				_delay_ms(50);
				if (joy_pos.dir == 2){
					menynummer = 13;
				}
				else if (joy_pos.dir == 1){
					menynummer = 15;
    1958:	0f e0       	ldi	r16, 0x0F	; 15
    195a:	10 e0       	ldi	r17, 0x00	; 0
			_delay_ms(200);
			while(menynummer == 16){
				joy_pos = JOY_getDirection();
				_delay_ms(50);
				if (joy_pos.dir == 2){
					menynummer = 13;
    195c:	0f 2e       	mov	r0, r31
    195e:	fd e0       	ldi	r31, 0x0D	; 13
    1960:	ef 2e       	mov	r14, r31
    1962:	f1 2c       	mov	r15, r1
    1964:	f0 2d       	mov	r31, r0
    1966:	2a c0       	rjmp	.+84     	; 0x19bc <init_menu+0xfb8>
			OLED_print(" >Hard<");
			OLED_pos(7, 1);
			OLED_print("* Back");
			_delay_ms(200);
			while(menynummer == 16){
				joy_pos = JOY_getDirection();
    1968:	0e 94 b6 03 	call	0x76c	; 0x76c <JOY_getDirection>
    196c:	60 93 40 04 	sts	0x0440, r22	; 0x800440 <joy_pos>
    1970:	70 93 41 04 	sts	0x0441, r23	; 0x800441 <joy_pos+0x1>
    1974:	80 93 42 04 	sts	0x0442, r24	; 0x800442 <joy_pos+0x2>
    1978:	90 93 43 04 	sts	0x0443, r25	; 0x800443 <joy_pos+0x3>
    197c:	8e ed       	ldi	r24, 0xDE	; 222
    197e:	9f ee       	ldi	r25, 0xEF	; 239
    1980:	01 97       	sbiw	r24, 0x01	; 1
    1982:	f1 f7       	brne	.-4      	; 0x1980 <init_menu+0xf7c>
				_delay_ms(50);
				if (joy_pos.dir == 2){
    1984:	80 91 42 04 	lds	r24, 0x0442	; 0x800442 <joy_pos+0x2>
    1988:	82 30       	cpi	r24, 0x02	; 2
    198a:	29 f4       	brne	.+10     	; 0x1996 <init_menu+0xf92>
					menynummer = 13;
    198c:	f0 92 18 04 	sts	0x0418, r15	; 0x800418 <menynummer+0x1>
    1990:	e0 92 17 04 	sts	0x0417, r14	; 0x800417 <menynummer>
    1994:	13 c0       	rjmp	.+38     	; 0x19bc <init_menu+0xfb8>
				}
				else if (joy_pos.dir == 1){
    1996:	81 30       	cpi	r24, 0x01	; 1
    1998:	29 f4       	brne	.+10     	; 0x19a4 <init_menu+0xfa0>
					menynummer = 15;
    199a:	10 93 18 04 	sts	0x0418, r17	; 0x800418 <menynummer+0x1>
    199e:	00 93 17 04 	sts	0x0417, r16	; 0x800417 <menynummer>
    19a2:	0c c0       	rjmp	.+24     	; 0x19bc <init_menu+0xfb8>
				}
				else if (joy_button(1) == 0){
    19a4:	81 e0       	ldi	r24, 0x01	; 1
    19a6:	90 e0       	ldi	r25, 0x00	; 0
    19a8:	0e 94 3d 03 	call	0x67a	; 0x67a <joy_button>
    19ac:	89 2b       	or	r24, r25
    19ae:	31 f4       	brne	.+12     	; 0x19bc <init_menu+0xfb8>
					menynummer = 1;
    19b0:	81 e0       	ldi	r24, 0x01	; 1
    19b2:	90 e0       	ldi	r25, 0x00	; 0
    19b4:	90 93 18 04 	sts	0x0418, r25	; 0x800418 <menynummer+0x1>
    19b8:	80 93 17 04 	sts	0x0417, r24	; 0x800417 <menynummer>
			OLED_pos(5, 1);
			OLED_print(" >Hard<");
			OLED_pos(7, 1);
			OLED_print("* Back");
			_delay_ms(200);
			while(menynummer == 16){
    19bc:	80 91 17 04 	lds	r24, 0x0417	; 0x800417 <menynummer>
    19c0:	90 91 18 04 	lds	r25, 0x0418	; 0x800418 <menynummer+0x1>
    19c4:	40 97       	sbiw	r24, 0x10	; 16
    19c6:	81 f2       	breq	.-96     	; 0x1968 <init_menu+0xf64>
    19c8:	6f c4       	rjmp	.+2270   	; 0x22a8 <init_menu+0x18a4>
					menynummer = 1;
				}
			}
			break;		
		case 23 : // HIGHSCORES - Return
			OLED_clear();
    19ca:	0e 94 f0 11 	call	0x23e0	; 0x23e0 <OLED_clear>
			OLED_pos(2, 3);
    19ce:	63 e0       	ldi	r22, 0x03	; 3
    19d0:	82 e0       	ldi	r24, 0x02	; 2
    19d2:	0e 94 c3 11 	call	0x2386	; 0x2386 <OLED_pos>
    19d6:	ac e1       	ldi	r26, 0x1C	; 28
    19d8:	b1 e0       	ldi	r27, 0x01	; 1
    19da:	04 e2       	ldi	r16, 0x24	; 36
    19dc:	11 e0       	ldi	r17, 0x01	; 1
    19de:	ba 83       	std	Y+2, r27	; 0x02
    19e0:	a9 83       	std	Y+1, r26	; 0x01
			for (int i = 0; i < 4; i++){
				OLED_print(highscorename1[i]);
    19e2:	e9 81       	ldd	r30, Y+1	; 0x01
    19e4:	fa 81       	ldd	r31, Y+2	; 0x02
    19e6:	81 91       	ld	r24, Z+
    19e8:	91 91       	ld	r25, Z+
    19ea:	fa 83       	std	Y+2, r31	; 0x02
    19ec:	e9 83       	std	Y+1, r30	; 0x01
    19ee:	0e 94 bd 12 	call	0x257a	; 0x257a <OLED_print>
			}
			break;		
		case 23 : // HIGHSCORES - Return
			OLED_clear();
			OLED_pos(2, 3);
			for (int i = 0; i < 4; i++){
    19f2:	29 81       	ldd	r18, Y+1	; 0x01
    19f4:	3a 81       	ldd	r19, Y+2	; 0x02
    19f6:	02 17       	cp	r16, r18
    19f8:	13 07       	cpc	r17, r19
    19fa:	99 f7       	brne	.-26     	; 0x19e2 <init_menu+0xfde>
				OLED_print(highscorename1[i]);
			}
			OLED_pos(2,9);
    19fc:	69 e0       	ldi	r22, 0x09	; 9
    19fe:	82 e0       	ldi	r24, 0x02	; 2
    1a00:	0e 94 c3 11 	call	0x2386	; 0x2386 <OLED_pos>
    1a04:	4a e0       	ldi	r20, 0x0A	; 10
    1a06:	68 e4       	ldi	r22, 0x48	; 72
    1a08:	74 e0       	ldi	r23, 0x04	; 4
    1a0a:	80 91 1d 04 	lds	r24, 0x041D	; 0x80041d <highscorescore1>
    1a0e:	90 91 1e 04 	lds	r25, 0x041E	; 0x80041e <highscorescore1+0x1>
    1a12:	0e 94 9d 17 	call	0x2f3a	; 0x2f3a <__itoa_ncheck>
			OLED_print(itoa(highscorescore1, buffer, 10));
    1a16:	0e 94 bd 12 	call	0x257a	; 0x257a <OLED_print>
			OLED_pos(3, 3);
    1a1a:	63 e0       	ldi	r22, 0x03	; 3
    1a1c:	83 e0       	ldi	r24, 0x03	; 3
    1a1e:	0e 94 c3 11 	call	0x2386	; 0x2386 <OLED_pos>
    1a22:	84 e1       	ldi	r24, 0x14	; 20
    1a24:	91 e0       	ldi	r25, 0x01	; 1
    1a26:	0c e1       	ldi	r16, 0x1C	; 28
    1a28:	11 e0       	ldi	r17, 0x01	; 1
    1a2a:	9a 83       	std	Y+2, r25	; 0x02
    1a2c:	89 83       	std	Y+1, r24	; 0x01
			for (int i = 0; i < 4; i++){
				OLED_print(highscorename2[i]);
    1a2e:	a9 81       	ldd	r26, Y+1	; 0x01
    1a30:	ba 81       	ldd	r27, Y+2	; 0x02
    1a32:	8d 91       	ld	r24, X+
    1a34:	9d 91       	ld	r25, X+
    1a36:	ba 83       	std	Y+2, r27	; 0x02
    1a38:	a9 83       	std	Y+1, r26	; 0x01
    1a3a:	0e 94 bd 12 	call	0x257a	; 0x257a <OLED_print>
				OLED_print(highscorename1[i]);
			}
			OLED_pos(2,9);
			OLED_print(itoa(highscorescore1, buffer, 10));
			OLED_pos(3, 3);
			for (int i = 0; i < 4; i++){
    1a3e:	e9 81       	ldd	r30, Y+1	; 0x01
    1a40:	fa 81       	ldd	r31, Y+2	; 0x02
    1a42:	e0 17       	cp	r30, r16
    1a44:	f1 07       	cpc	r31, r17
    1a46:	99 f7       	brne	.-26     	; 0x1a2e <init_menu+0x102a>
				OLED_print(highscorename2[i]);
			}
			OLED_pos(3,9);
    1a48:	69 e0       	ldi	r22, 0x09	; 9
    1a4a:	83 e0       	ldi	r24, 0x03	; 3
    1a4c:	0e 94 c3 11 	call	0x2386	; 0x2386 <OLED_pos>
    1a50:	4a e0       	ldi	r20, 0x0A	; 10
    1a52:	68 e4       	ldi	r22, 0x48	; 72
    1a54:	74 e0       	ldi	r23, 0x04	; 4
    1a56:	80 91 1b 04 	lds	r24, 0x041B	; 0x80041b <highscorescore2>
    1a5a:	90 91 1c 04 	lds	r25, 0x041C	; 0x80041c <highscorescore2+0x1>
    1a5e:	0e 94 9d 17 	call	0x2f3a	; 0x2f3a <__itoa_ncheck>
			OLED_print(itoa(highscorescore2, buffer, 10));
    1a62:	0e 94 bd 12 	call	0x257a	; 0x257a <OLED_print>
			OLED_pos(4, 3);
    1a66:	63 e0       	ldi	r22, 0x03	; 3
    1a68:	84 e0       	ldi	r24, 0x04	; 4
    1a6a:	0e 94 c3 11 	call	0x2386	; 0x2386 <OLED_pos>
    1a6e:	2c e0       	ldi	r18, 0x0C	; 12
    1a70:	31 e0       	ldi	r19, 0x01	; 1
    1a72:	04 e1       	ldi	r16, 0x14	; 20
    1a74:	11 e0       	ldi	r17, 0x01	; 1
    1a76:	3a 83       	std	Y+2, r19	; 0x02
    1a78:	29 83       	std	Y+1, r18	; 0x01
			for (int i = 0; i < 4; i++){
				OLED_print(highscorename3[i]);
    1a7a:	a9 81       	ldd	r26, Y+1	; 0x01
    1a7c:	ba 81       	ldd	r27, Y+2	; 0x02
    1a7e:	8d 91       	ld	r24, X+
    1a80:	9d 91       	ld	r25, X+
    1a82:	ba 83       	std	Y+2, r27	; 0x02
    1a84:	a9 83       	std	Y+1, r26	; 0x01
    1a86:	0e 94 bd 12 	call	0x257a	; 0x257a <OLED_print>
				OLED_print(highscorename2[i]);
			}
			OLED_pos(3,9);
			OLED_print(itoa(highscorescore2, buffer, 10));
			OLED_pos(4, 3);
			for (int i = 0; i < 4; i++){
    1a8a:	e9 81       	ldd	r30, Y+1	; 0x01
    1a8c:	fa 81       	ldd	r31, Y+2	; 0x02
    1a8e:	0e 17       	cp	r16, r30
    1a90:	1f 07       	cpc	r17, r31
    1a92:	99 f7       	brne	.-26     	; 0x1a7a <init_menu+0x1076>
				OLED_print(highscorename3[i]);
			}
			OLED_pos(4,9);
    1a94:	69 e0       	ldi	r22, 0x09	; 9
    1a96:	84 e0       	ldi	r24, 0x04	; 4
    1a98:	0e 94 c3 11 	call	0x2386	; 0x2386 <OLED_pos>
    1a9c:	4a e0       	ldi	r20, 0x0A	; 10
    1a9e:	68 e4       	ldi	r22, 0x48	; 72
    1aa0:	74 e0       	ldi	r23, 0x04	; 4
    1aa2:	80 91 19 04 	lds	r24, 0x0419	; 0x800419 <highscorescore3>
    1aa6:	90 91 1a 04 	lds	r25, 0x041A	; 0x80041a <highscorescore3+0x1>
    1aaa:	0e 94 9d 17 	call	0x2f3a	; 0x2f3a <__itoa_ncheck>
			OLED_print(itoa(highscorescore3, buffer, 10));
    1aae:	0e 94 bd 12 	call	0x257a	; 0x257a <OLED_print>
			OLED_pos(6,1);
    1ab2:	61 e0       	ldi	r22, 0x01	; 1
    1ab4:	86 e0       	ldi	r24, 0x06	; 6
    1ab6:	0e 94 c3 11 	call	0x2386	; 0x2386 <OLED_pos>
			OLED_print("*Back    Reset");
    1aba:	82 e0       	ldi	r24, 0x02	; 2
    1abc:	93 e0       	ldi	r25, 0x03	; 3
    1abe:	0e 94 bd 12 	call	0x257a	; 0x257a <OLED_print>
    1ac2:	f3 e9       	ldi	r31, 0x93	; 147
    1ac4:	2f ef       	ldi	r18, 0xFF	; 255
    1ac6:	32 e0       	ldi	r19, 0x02	; 2
    1ac8:	f1 50       	subi	r31, 0x01	; 1
    1aca:	20 40       	sbci	r18, 0x00	; 0
    1acc:	30 40       	sbci	r19, 0x00	; 0
    1ace:	e1 f7       	brne	.-8      	; 0x1ac8 <init_menu+0x10c4>
    1ad0:	00 c0       	rjmp	.+0      	; 0x1ad2 <init_menu+0x10ce>
    1ad2:	00 00       	nop
    1ad4:	33 c0       	rjmp	.+102    	; 0x1b3c <init_menu+0x1138>
			_delay_ms(200);
			while(menynummer == 23){
				joy_pos = JOY_getDirection();
    1ad6:	0e 94 b6 03 	call	0x76c	; 0x76c <JOY_getDirection>
    1ada:	60 93 40 04 	sts	0x0440, r22	; 0x800440 <joy_pos>
    1ade:	70 93 41 04 	sts	0x0441, r23	; 0x800441 <joy_pos+0x1>
    1ae2:	80 93 42 04 	sts	0x0442, r24	; 0x800442 <joy_pos+0x2>
    1ae6:	90 93 43 04 	sts	0x0443, r25	; 0x800443 <joy_pos+0x3>
    1aea:	8e ea       	ldi	r24, 0xAE	; 174
    1aec:	9f e3       	ldi	r25, 0x3F	; 63
    1aee:	a2 e0       	ldi	r26, 0x02	; 2
    1af0:	81 50       	subi	r24, 0x01	; 1
    1af2:	90 40       	sbci	r25, 0x00	; 0
    1af4:	a0 40       	sbci	r26, 0x00	; 0
    1af6:	e1 f7       	brne	.-8      	; 0x1af0 <init_menu+0x10ec>
    1af8:	00 c0       	rjmp	.+0      	; 0x1afa <init_menu+0x10f6>
    1afa:	00 00       	nop
				_delay_ms(150);
				if (joy_pos.sidedir == 1){
    1afc:	80 91 43 04 	lds	r24, 0x0443	; 0x800443 <joy_pos+0x3>
    1b00:	81 30       	cpi	r24, 0x01	; 1
    1b02:	39 f4       	brne	.+14     	; 0x1b12 <init_menu+0x110e>
					menynummer = 24;
    1b04:	88 e1       	ldi	r24, 0x18	; 24
    1b06:	90 e0       	ldi	r25, 0x00	; 0
    1b08:	90 93 18 04 	sts	0x0418, r25	; 0x800418 <menynummer+0x1>
    1b0c:	80 93 17 04 	sts	0x0417, r24	; 0x800417 <menynummer>
					break;
    1b10:	cb c3       	rjmp	.+1942   	; 0x22a8 <init_menu+0x18a4>
				}
				else if (joy_pos.sidedir == 2){
    1b12:	82 30       	cpi	r24, 0x02	; 2
    1b14:	39 f4       	brne	.+14     	; 0x1b24 <init_menu+0x1120>
					menynummer = 24;
    1b16:	88 e1       	ldi	r24, 0x18	; 24
    1b18:	90 e0       	ldi	r25, 0x00	; 0
    1b1a:	90 93 18 04 	sts	0x0418, r25	; 0x800418 <menynummer+0x1>
    1b1e:	80 93 17 04 	sts	0x0417, r24	; 0x800417 <menynummer>
					break;
    1b22:	c2 c3       	rjmp	.+1924   	; 0x22a8 <init_menu+0x18a4>
				}
				else if (joy_button(1) == 0){
    1b24:	81 e0       	ldi	r24, 0x01	; 1
    1b26:	90 e0       	ldi	r25, 0x00	; 0
    1b28:	0e 94 3d 03 	call	0x67a	; 0x67a <joy_button>
    1b2c:	89 2b       	or	r24, r25
    1b2e:	31 f4       	brne	.+12     	; 0x1b3c <init_menu+0x1138>
					menynummer = 1;
    1b30:	81 e0       	ldi	r24, 0x01	; 1
    1b32:	90 e0       	ldi	r25, 0x00	; 0
    1b34:	90 93 18 04 	sts	0x0418, r25	; 0x800418 <menynummer+0x1>
    1b38:	80 93 17 04 	sts	0x0417, r24	; 0x800417 <menynummer>
			OLED_pos(4,9);
			OLED_print(itoa(highscorescore3, buffer, 10));
			OLED_pos(6,1);
			OLED_print("*Back    Reset");
			_delay_ms(200);
			while(menynummer == 23){
    1b3c:	80 91 17 04 	lds	r24, 0x0417	; 0x800417 <menynummer>
    1b40:	90 91 18 04 	lds	r25, 0x0418	; 0x800418 <menynummer+0x1>
    1b44:	47 97       	sbiw	r24, 0x17	; 23
    1b46:	39 f2       	breq	.-114    	; 0x1ad6 <init_menu+0x10d2>
    1b48:	af c3       	rjmp	.+1886   	; 0x22a8 <init_menu+0x18a4>
					menynummer = 1;
				}
			}
			break;
		case 24 : // HIGHSCORES - Reset
			OLED_clear();
    1b4a:	0e 94 f0 11 	call	0x23e0	; 0x23e0 <OLED_clear>
			OLED_pos(2, 3);
    1b4e:	63 e0       	ldi	r22, 0x03	; 3
    1b50:	82 e0       	ldi	r24, 0x02	; 2
    1b52:	0e 94 c3 11 	call	0x2386	; 0x2386 <OLED_pos>
    1b56:	ec e1       	ldi	r30, 0x1C	; 28
    1b58:	f1 e0       	ldi	r31, 0x01	; 1
    1b5a:	04 e2       	ldi	r16, 0x24	; 36
    1b5c:	11 e0       	ldi	r17, 0x01	; 1
    1b5e:	fa 83       	std	Y+2, r31	; 0x02
    1b60:	e9 83       	std	Y+1, r30	; 0x01
			for (int i = 0; i < 4; i++){
				OLED_print(highscorename1[i]);
    1b62:	a9 81       	ldd	r26, Y+1	; 0x01
    1b64:	ba 81       	ldd	r27, Y+2	; 0x02
    1b66:	8d 91       	ld	r24, X+
    1b68:	9d 91       	ld	r25, X+
    1b6a:	ba 83       	std	Y+2, r27	; 0x02
    1b6c:	a9 83       	std	Y+1, r26	; 0x01
    1b6e:	0e 94 bd 12 	call	0x257a	; 0x257a <OLED_print>
			}
			break;
		case 24 : // HIGHSCORES - Reset
			OLED_clear();
			OLED_pos(2, 3);
			for (int i = 0; i < 4; i++){
    1b72:	e9 81       	ldd	r30, Y+1	; 0x01
    1b74:	fa 81       	ldd	r31, Y+2	; 0x02
    1b76:	e0 17       	cp	r30, r16
    1b78:	f1 07       	cpc	r31, r17
    1b7a:	99 f7       	brne	.-26     	; 0x1b62 <init_menu+0x115e>
				OLED_print(highscorename1[i]);
			}
			OLED_pos(2,9);
    1b7c:	69 e0       	ldi	r22, 0x09	; 9
    1b7e:	82 e0       	ldi	r24, 0x02	; 2
    1b80:	0e 94 c3 11 	call	0x2386	; 0x2386 <OLED_pos>
    1b84:	4a e0       	ldi	r20, 0x0A	; 10
    1b86:	68 e4       	ldi	r22, 0x48	; 72
    1b88:	74 e0       	ldi	r23, 0x04	; 4
    1b8a:	80 91 1d 04 	lds	r24, 0x041D	; 0x80041d <highscorescore1>
    1b8e:	90 91 1e 04 	lds	r25, 0x041E	; 0x80041e <highscorescore1+0x1>
    1b92:	0e 94 9d 17 	call	0x2f3a	; 0x2f3a <__itoa_ncheck>
			OLED_print(itoa(highscorescore1, buffer, 10));
    1b96:	0e 94 bd 12 	call	0x257a	; 0x257a <OLED_print>
			OLED_pos(3, 3);
    1b9a:	63 e0       	ldi	r22, 0x03	; 3
    1b9c:	83 e0       	ldi	r24, 0x03	; 3
    1b9e:	0e 94 c3 11 	call	0x2386	; 0x2386 <OLED_pos>
    1ba2:	24 e1       	ldi	r18, 0x14	; 20
    1ba4:	31 e0       	ldi	r19, 0x01	; 1
    1ba6:	0c e1       	ldi	r16, 0x1C	; 28
    1ba8:	11 e0       	ldi	r17, 0x01	; 1
    1baa:	3a 83       	std	Y+2, r19	; 0x02
    1bac:	29 83       	std	Y+1, r18	; 0x01
			for (int i = 0; i < 4; i++){
				OLED_print(highscorename2[i]);
    1bae:	a9 81       	ldd	r26, Y+1	; 0x01
    1bb0:	ba 81       	ldd	r27, Y+2	; 0x02
    1bb2:	8d 91       	ld	r24, X+
    1bb4:	9d 91       	ld	r25, X+
    1bb6:	ba 83       	std	Y+2, r27	; 0x02
    1bb8:	a9 83       	std	Y+1, r26	; 0x01
    1bba:	0e 94 bd 12 	call	0x257a	; 0x257a <OLED_print>
				OLED_print(highscorename1[i]);
			}
			OLED_pos(2,9);
			OLED_print(itoa(highscorescore1, buffer, 10));
			OLED_pos(3, 3);
			for (int i = 0; i < 4; i++){
    1bbe:	e9 81       	ldd	r30, Y+1	; 0x01
    1bc0:	fa 81       	ldd	r31, Y+2	; 0x02
    1bc2:	0e 17       	cp	r16, r30
    1bc4:	1f 07       	cpc	r17, r31
    1bc6:	99 f7       	brne	.-26     	; 0x1bae <init_menu+0x11aa>
				OLED_print(highscorename2[i]);
			}
			OLED_pos(3,9);
    1bc8:	69 e0       	ldi	r22, 0x09	; 9
    1bca:	83 e0       	ldi	r24, 0x03	; 3
    1bcc:	0e 94 c3 11 	call	0x2386	; 0x2386 <OLED_pos>
    1bd0:	4a e0       	ldi	r20, 0x0A	; 10
    1bd2:	68 e4       	ldi	r22, 0x48	; 72
    1bd4:	74 e0       	ldi	r23, 0x04	; 4
    1bd6:	80 91 1b 04 	lds	r24, 0x041B	; 0x80041b <highscorescore2>
    1bda:	90 91 1c 04 	lds	r25, 0x041C	; 0x80041c <highscorescore2+0x1>
    1bde:	0e 94 9d 17 	call	0x2f3a	; 0x2f3a <__itoa_ncheck>
			OLED_print(itoa(highscorescore2, buffer, 10));
    1be2:	0e 94 bd 12 	call	0x257a	; 0x257a <OLED_print>
			OLED_pos(4, 3);
    1be6:	63 e0       	ldi	r22, 0x03	; 3
    1be8:	84 e0       	ldi	r24, 0x04	; 4
    1bea:	0e 94 c3 11 	call	0x2386	; 0x2386 <OLED_pos>
    1bee:	2c e0       	ldi	r18, 0x0C	; 12
    1bf0:	31 e0       	ldi	r19, 0x01	; 1
    1bf2:	04 e1       	ldi	r16, 0x14	; 20
    1bf4:	11 e0       	ldi	r17, 0x01	; 1
    1bf6:	3a 83       	std	Y+2, r19	; 0x02
    1bf8:	29 83       	std	Y+1, r18	; 0x01
			for (int i = 0; i < 4; i++){
				OLED_print(highscorename3[i]);
    1bfa:	a9 81       	ldd	r26, Y+1	; 0x01
    1bfc:	ba 81       	ldd	r27, Y+2	; 0x02
    1bfe:	8d 91       	ld	r24, X+
    1c00:	9d 91       	ld	r25, X+
    1c02:	ba 83       	std	Y+2, r27	; 0x02
    1c04:	a9 83       	std	Y+1, r26	; 0x01
    1c06:	0e 94 bd 12 	call	0x257a	; 0x257a <OLED_print>
				OLED_print(highscorename2[i]);
			}
			OLED_pos(3,9);
			OLED_print(itoa(highscorescore2, buffer, 10));
			OLED_pos(4, 3);
			for (int i = 0; i < 4; i++){
    1c0a:	e9 81       	ldd	r30, Y+1	; 0x01
    1c0c:	fa 81       	ldd	r31, Y+2	; 0x02
    1c0e:	0e 17       	cp	r16, r30
    1c10:	1f 07       	cpc	r17, r31
    1c12:	99 f7       	brne	.-26     	; 0x1bfa <init_menu+0x11f6>
				OLED_print(highscorename3[i]);
			}
			OLED_pos(4,9);
    1c14:	69 e0       	ldi	r22, 0x09	; 9
    1c16:	84 e0       	ldi	r24, 0x04	; 4
    1c18:	0e 94 c3 11 	call	0x2386	; 0x2386 <OLED_pos>
    1c1c:	4a e0       	ldi	r20, 0x0A	; 10
    1c1e:	68 e4       	ldi	r22, 0x48	; 72
    1c20:	74 e0       	ldi	r23, 0x04	; 4
    1c22:	80 91 19 04 	lds	r24, 0x0419	; 0x800419 <highscorescore3>
    1c26:	90 91 1a 04 	lds	r25, 0x041A	; 0x80041a <highscorescore3+0x1>
    1c2a:	0e 94 9d 17 	call	0x2f3a	; 0x2f3a <__itoa_ncheck>
			OLED_print(itoa(highscorescore3, buffer, 10));
    1c2e:	0e 94 bd 12 	call	0x257a	; 0x257a <OLED_print>
			OLED_pos(6,1);
    1c32:	61 e0       	ldi	r22, 0x01	; 1
    1c34:	86 e0       	ldi	r24, 0x06	; 6
    1c36:	0e 94 c3 11 	call	0x2386	; 0x2386 <OLED_pos>
			OLED_print(" Back   *Reset");
    1c3a:	81 e1       	ldi	r24, 0x11	; 17
    1c3c:	93 e0       	ldi	r25, 0x03	; 3
    1c3e:	0e 94 bd 12 	call	0x257a	; 0x257a <OLED_print>
    1c42:	f3 e9       	ldi	r31, 0x93	; 147
    1c44:	2f ef       	ldi	r18, 0xFF	; 255
    1c46:	32 e0       	ldi	r19, 0x02	; 2
    1c48:	f1 50       	subi	r31, 0x01	; 1
    1c4a:	20 40       	sbci	r18, 0x00	; 0
    1c4c:	30 40       	sbci	r19, 0x00	; 0
    1c4e:	e1 f7       	brne	.-8      	; 0x1c48 <init_menu+0x1244>
    1c50:	00 c0       	rjmp	.+0      	; 0x1c52 <init_menu+0x124e>
    1c52:	00 00       	nop
				else if (joy_pos.sidedir == 2){
					menynummer = 23;
					break;
				}
				else if (joy_button(1) == 0){
					menynummer = 25;
    1c54:	09 e1       	ldi	r16, 0x19	; 25
    1c56:	10 e0       	ldi	r17, 0x00	; 0
    1c58:	31 c0       	rjmp	.+98     	; 0x1cbc <init_menu+0x12b8>
			OLED_print(itoa(highscorescore3, buffer, 10));
			OLED_pos(6,1);
			OLED_print(" Back   *Reset");
			_delay_ms(200);
			while(menynummer == 24){
				joy_pos = JOY_getDirection();
    1c5a:	0e 94 b6 03 	call	0x76c	; 0x76c <JOY_getDirection>
    1c5e:	60 93 40 04 	sts	0x0440, r22	; 0x800440 <joy_pos>
    1c62:	70 93 41 04 	sts	0x0441, r23	; 0x800441 <joy_pos+0x1>
    1c66:	80 93 42 04 	sts	0x0442, r24	; 0x800442 <joy_pos+0x2>
    1c6a:	90 93 43 04 	sts	0x0443, r25	; 0x800443 <joy_pos+0x3>
    1c6e:	8e ea       	ldi	r24, 0xAE	; 174
    1c70:	9f e3       	ldi	r25, 0x3F	; 63
    1c72:	a2 e0       	ldi	r26, 0x02	; 2
    1c74:	81 50       	subi	r24, 0x01	; 1
    1c76:	90 40       	sbci	r25, 0x00	; 0
    1c78:	a0 40       	sbci	r26, 0x00	; 0
    1c7a:	e1 f7       	brne	.-8      	; 0x1c74 <init_menu+0x1270>
    1c7c:	00 c0       	rjmp	.+0      	; 0x1c7e <init_menu+0x127a>
    1c7e:	00 00       	nop
				_delay_ms(150);
				if (joy_pos.sidedir == 1){
    1c80:	80 91 43 04 	lds	r24, 0x0443	; 0x800443 <joy_pos+0x3>
    1c84:	81 30       	cpi	r24, 0x01	; 1
    1c86:	39 f4       	brne	.+14     	; 0x1c96 <init_menu+0x1292>
					menynummer = 23;
    1c88:	87 e1       	ldi	r24, 0x17	; 23
    1c8a:	90 e0       	ldi	r25, 0x00	; 0
    1c8c:	90 93 18 04 	sts	0x0418, r25	; 0x800418 <menynummer+0x1>
    1c90:	80 93 17 04 	sts	0x0417, r24	; 0x800417 <menynummer>
					break;
    1c94:	09 c3       	rjmp	.+1554   	; 0x22a8 <init_menu+0x18a4>
				}
				else if (joy_pos.sidedir == 2){
    1c96:	82 30       	cpi	r24, 0x02	; 2
    1c98:	39 f4       	brne	.+14     	; 0x1ca8 <init_menu+0x12a4>
					menynummer = 23;
    1c9a:	87 e1       	ldi	r24, 0x17	; 23
    1c9c:	90 e0       	ldi	r25, 0x00	; 0
    1c9e:	90 93 18 04 	sts	0x0418, r25	; 0x800418 <menynummer+0x1>
    1ca2:	80 93 17 04 	sts	0x0417, r24	; 0x800417 <menynummer>
					break;
    1ca6:	00 c3       	rjmp	.+1536   	; 0x22a8 <init_menu+0x18a4>
				}
				else if (joy_button(1) == 0){
    1ca8:	81 e0       	ldi	r24, 0x01	; 1
    1caa:	90 e0       	ldi	r25, 0x00	; 0
    1cac:	0e 94 3d 03 	call	0x67a	; 0x67a <joy_button>
    1cb0:	89 2b       	or	r24, r25
    1cb2:	21 f4       	brne	.+8      	; 0x1cbc <init_menu+0x12b8>
					menynummer = 25;
    1cb4:	10 93 18 04 	sts	0x0418, r17	; 0x800418 <menynummer+0x1>
    1cb8:	00 93 17 04 	sts	0x0417, r16	; 0x800417 <menynummer>
			OLED_pos(4,9);
			OLED_print(itoa(highscorescore3, buffer, 10));
			OLED_pos(6,1);
			OLED_print(" Back   *Reset");
			_delay_ms(200);
			while(menynummer == 24){
    1cbc:	80 91 17 04 	lds	r24, 0x0417	; 0x800417 <menynummer>
    1cc0:	90 91 18 04 	lds	r25, 0x0418	; 0x800418 <menynummer+0x1>
    1cc4:	48 97       	sbiw	r24, 0x18	; 24
    1cc6:	49 f2       	breq	.-110    	; 0x1c5a <init_menu+0x1256>
    1cc8:	ef c2       	rjmp	.+1502   	; 0x22a8 <init_menu+0x18a4>
					menynummer = 25;
				}
			}
			break;
		case 25 : // Clear highscores - Are you sure? No
			OLED_clear();
    1cca:	0e 94 f0 11 	call	0x23e0	; 0x23e0 <OLED_clear>
			OLED_pos(3,1);
    1cce:	61 e0       	ldi	r22, 0x01	; 1
    1cd0:	83 e0       	ldi	r24, 0x03	; 3
    1cd2:	0e 94 c3 11 	call	0x2386	; 0x2386 <OLED_pos>
			OLED_print("Are you sure?");
    1cd6:	80 e2       	ldi	r24, 0x20	; 32
    1cd8:	93 e0       	ldi	r25, 0x03	; 3
    1cda:	0e 94 bd 12 	call	0x257a	; 0x257a <OLED_print>
			OLED_pos(5, 1);
    1cde:	61 e0       	ldi	r22, 0x01	; 1
    1ce0:	85 e0       	ldi	r24, 0x05	; 5
    1ce2:	0e 94 c3 11 	call	0x2386	; 0x2386 <OLED_pos>
			OLED_print(" *No    Yes");
    1ce6:	8e e2       	ldi	r24, 0x2E	; 46
    1ce8:	93 e0       	ldi	r25, 0x03	; 3
    1cea:	0e 94 bd 12 	call	0x257a	; 0x257a <OLED_print>
    1cee:	b3 e9       	ldi	r27, 0x93	; 147
    1cf0:	ef ef       	ldi	r30, 0xFF	; 255
    1cf2:	f2 e0       	ldi	r31, 0x02	; 2
    1cf4:	b1 50       	subi	r27, 0x01	; 1
    1cf6:	e0 40       	sbci	r30, 0x00	; 0
    1cf8:	f0 40       	sbci	r31, 0x00	; 0
    1cfa:	e1 f7       	brne	.-8      	; 0x1cf4 <init_menu+0x12f0>
    1cfc:	00 c0       	rjmp	.+0      	; 0x1cfe <init_menu+0x12fa>
    1cfe:	00 00       	nop
				}
				else if (joy_pos.sidedir == 2){
					menynummer = 26;
				}
				else if (joy_button(1) == 0){
					menynummer = 23;
    1d00:	0f 2e       	mov	r0, r31
    1d02:	f7 e1       	ldi	r31, 0x17	; 23
    1d04:	ef 2e       	mov	r14, r31
    1d06:	f1 2c       	mov	r15, r1
    1d08:	f0 2d       	mov	r31, r0
				_delay_ms(50);
				if (joy_pos.sidedir == 1){
					menynummer = 26;
				}
				else if (joy_pos.sidedir == 2){
					menynummer = 26;
    1d0a:	0a e1       	ldi	r16, 0x1A	; 26
    1d0c:	10 e0       	ldi	r17, 0x00	; 0
    1d0e:	28 c0       	rjmp	.+80     	; 0x1d60 <init_menu+0x135c>
			OLED_print("Are you sure?");
			OLED_pos(5, 1);
			OLED_print(" *No    Yes");
			_delay_ms(200);
			while(menynummer == 25){
				joy_pos = JOY_getDirection();
    1d10:	0e 94 b6 03 	call	0x76c	; 0x76c <JOY_getDirection>
    1d14:	60 93 40 04 	sts	0x0440, r22	; 0x800440 <joy_pos>
    1d18:	70 93 41 04 	sts	0x0441, r23	; 0x800441 <joy_pos+0x1>
    1d1c:	80 93 42 04 	sts	0x0442, r24	; 0x800442 <joy_pos+0x2>
    1d20:	90 93 43 04 	sts	0x0443, r25	; 0x800443 <joy_pos+0x3>
    1d24:	8e ed       	ldi	r24, 0xDE	; 222
    1d26:	9f ee       	ldi	r25, 0xEF	; 239
    1d28:	01 97       	sbiw	r24, 0x01	; 1
    1d2a:	f1 f7       	brne	.-4      	; 0x1d28 <init_menu+0x1324>
				_delay_ms(50);
				if (joy_pos.sidedir == 1){
    1d2c:	80 91 43 04 	lds	r24, 0x0443	; 0x800443 <joy_pos+0x3>
    1d30:	81 30       	cpi	r24, 0x01	; 1
    1d32:	29 f4       	brne	.+10     	; 0x1d3e <init_menu+0x133a>
					menynummer = 26;
    1d34:	10 93 18 04 	sts	0x0418, r17	; 0x800418 <menynummer+0x1>
    1d38:	00 93 17 04 	sts	0x0417, r16	; 0x800417 <menynummer>
    1d3c:	11 c0       	rjmp	.+34     	; 0x1d60 <init_menu+0x135c>
				}
				else if (joy_pos.sidedir == 2){
    1d3e:	82 30       	cpi	r24, 0x02	; 2
    1d40:	29 f4       	brne	.+10     	; 0x1d4c <init_menu+0x1348>
					menynummer = 26;
    1d42:	10 93 18 04 	sts	0x0418, r17	; 0x800418 <menynummer+0x1>
    1d46:	00 93 17 04 	sts	0x0417, r16	; 0x800417 <menynummer>
    1d4a:	0a c0       	rjmp	.+20     	; 0x1d60 <init_menu+0x135c>
				}
				else if (joy_button(1) == 0){
    1d4c:	81 e0       	ldi	r24, 0x01	; 1
    1d4e:	90 e0       	ldi	r25, 0x00	; 0
    1d50:	0e 94 3d 03 	call	0x67a	; 0x67a <joy_button>
    1d54:	89 2b       	or	r24, r25
    1d56:	21 f4       	brne	.+8      	; 0x1d60 <init_menu+0x135c>
					menynummer = 23;
    1d58:	f0 92 18 04 	sts	0x0418, r15	; 0x800418 <menynummer+0x1>
    1d5c:	e0 92 17 04 	sts	0x0417, r14	; 0x800417 <menynummer>
			OLED_pos(3,1);
			OLED_print("Are you sure?");
			OLED_pos(5, 1);
			OLED_print(" *No    Yes");
			_delay_ms(200);
			while(menynummer == 25){
    1d60:	80 91 17 04 	lds	r24, 0x0417	; 0x800417 <menynummer>
    1d64:	90 91 18 04 	lds	r25, 0x0418	; 0x800418 <menynummer+0x1>
    1d68:	49 97       	sbiw	r24, 0x19	; 25
    1d6a:	91 f2       	breq	.-92     	; 0x1d10 <init_menu+0x130c>
    1d6c:	9d c2       	rjmp	.+1338   	; 0x22a8 <init_menu+0x18a4>
					menynummer = 23;
				}
			}
			break;
		case 26 : // Clear highscores - Are you sure? Yes
			OLED_clear();
    1d6e:	0e 94 f0 11 	call	0x23e0	; 0x23e0 <OLED_clear>
			OLED_pos(3,1);
    1d72:	61 e0       	ldi	r22, 0x01	; 1
    1d74:	83 e0       	ldi	r24, 0x03	; 3
    1d76:	0e 94 c3 11 	call	0x2386	; 0x2386 <OLED_pos>
			OLED_print("Are you sure?");
    1d7a:	80 e2       	ldi	r24, 0x20	; 32
    1d7c:	93 e0       	ldi	r25, 0x03	; 3
    1d7e:	0e 94 bd 12 	call	0x257a	; 0x257a <OLED_print>
			OLED_pos(5, 1);
    1d82:	61 e0       	ldi	r22, 0x01	; 1
    1d84:	85 e0       	ldi	r24, 0x05	; 5
    1d86:	0e 94 c3 11 	call	0x2386	; 0x2386 <OLED_pos>
			OLED_print("  No   *Yes");
    1d8a:	8a e3       	ldi	r24, 0x3A	; 58
    1d8c:	93 e0       	ldi	r25, 0x03	; 3
    1d8e:	0e 94 bd 12 	call	0x257a	; 0x257a <OLED_print>
    1d92:	93 e9       	ldi	r25, 0x93	; 147
    1d94:	af ef       	ldi	r26, 0xFF	; 255
    1d96:	b2 e0       	ldi	r27, 0x02	; 2
    1d98:	91 50       	subi	r25, 0x01	; 1
    1d9a:	a0 40       	sbci	r26, 0x00	; 0
    1d9c:	b0 40       	sbci	r27, 0x00	; 0
    1d9e:	e1 f7       	brne	.-8      	; 0x1d98 <init_menu+0x1394>
    1da0:	00 c0       	rjmp	.+0      	; 0x1da2 <init_menu+0x139e>
    1da2:	00 00       	nop
			_delay_ms(200);
			while(menynummer == 26){
				joy_pos = JOY_getDirection();
				_delay_ms(50);
				if (joy_pos.sidedir == 1){
    1da4:	00 e4       	ldi	r16, 0x40	; 64
    1da6:	14 e0       	ldi	r17, 0x04	; 4
    1da8:	0f 2e       	mov	r0, r31
    1daa:	f4 e2       	ldi	r31, 0x24	; 36
    1dac:	ef 2e       	mov	r14, r31
    1dae:	f1 e0       	ldi	r31, 0x01	; 1
    1db0:	ff 2e       	mov	r15, r31
    1db2:	f0 2d       	mov	r31, r0
					menynummer = 25;
				}
				else if (joy_button(1) == 0){
					menynummer = 1;
					for (int i = 0; i < 4; i++){
						highscorename1[i] = ".";
    1db4:	0f 2e       	mov	r0, r31
    1db6:	f5 ec       	ldi	r31, 0xC5	; 197
    1db8:	af 2e       	mov	r10, r31
    1dba:	f3 e0       	ldi	r31, 0x03	; 3
    1dbc:	bf 2e       	mov	r11, r31
    1dbe:	f0 2d       	mov	r31, r0
				_delay_ms(50);
				if (joy_pos.sidedir == 1){
					menynummer = 25;
				}
				else if (joy_pos.sidedir == 2){
					menynummer = 25;
    1dc0:	0f 2e       	mov	r0, r31
    1dc2:	f9 e1       	ldi	r31, 0x19	; 25
    1dc4:	cf 2e       	mov	r12, r31
    1dc6:	d1 2c       	mov	r13, r1
    1dc8:	f0 2d       	mov	r31, r0
    1dca:	4a c0       	rjmp	.+148    	; 0x1e60 <init_menu+0x145c>
			OLED_print("Are you sure?");
			OLED_pos(5, 1);
			OLED_print("  No   *Yes");
			_delay_ms(200);
			while(menynummer == 26){
				joy_pos = JOY_getDirection();
    1dcc:	0e 94 b6 03 	call	0x76c	; 0x76c <JOY_getDirection>
    1dd0:	60 93 40 04 	sts	0x0440, r22	; 0x800440 <joy_pos>
    1dd4:	70 93 41 04 	sts	0x0441, r23	; 0x800441 <joy_pos+0x1>
    1dd8:	80 93 42 04 	sts	0x0442, r24	; 0x800442 <joy_pos+0x2>
    1ddc:	90 93 43 04 	sts	0x0443, r25	; 0x800443 <joy_pos+0x3>
    1de0:	ee ed       	ldi	r30, 0xDE	; 222
    1de2:	ff ee       	ldi	r31, 0xEF	; 239
    1de4:	31 97       	sbiw	r30, 0x01	; 1
    1de6:	f1 f7       	brne	.-4      	; 0x1de4 <init_menu+0x13e0>
				_delay_ms(50);
				if (joy_pos.sidedir == 1){
    1de8:	d8 01       	movw	r26, r16
    1dea:	13 96       	adiw	r26, 0x03	; 3
    1dec:	8c 91       	ld	r24, X
    1dee:	81 30       	cpi	r24, 0x01	; 1
    1df0:	29 f4       	brne	.+10     	; 0x1dfc <init_menu+0x13f8>
					menynummer = 25;
    1df2:	d0 92 18 04 	sts	0x0418, r13	; 0x800418 <menynummer+0x1>
    1df6:	c0 92 17 04 	sts	0x0417, r12	; 0x800417 <menynummer>
    1dfa:	32 c0       	rjmp	.+100    	; 0x1e60 <init_menu+0x145c>
				}
				else if (joy_pos.sidedir == 2){
    1dfc:	82 30       	cpi	r24, 0x02	; 2
    1dfe:	29 f4       	brne	.+10     	; 0x1e0a <init_menu+0x1406>
					menynummer = 25;
    1e00:	d0 92 18 04 	sts	0x0418, r13	; 0x800418 <menynummer+0x1>
    1e04:	c0 92 17 04 	sts	0x0417, r12	; 0x800417 <menynummer>
    1e08:	2b c0       	rjmp	.+86     	; 0x1e60 <init_menu+0x145c>
				}
				else if (joy_button(1) == 0){
    1e0a:	81 e0       	ldi	r24, 0x01	; 1
    1e0c:	90 e0       	ldi	r25, 0x00	; 0
    1e0e:	0e 94 3d 03 	call	0x67a	; 0x67a <joy_button>
    1e12:	89 2b       	or	r24, r25
    1e14:	29 f5       	brne	.+74     	; 0x1e60 <init_menu+0x145c>
					menynummer = 1;
    1e16:	81 e0       	ldi	r24, 0x01	; 1
    1e18:	90 e0       	ldi	r25, 0x00	; 0
    1e1a:	90 93 18 04 	sts	0x0418, r25	; 0x800418 <menynummer+0x1>
    1e1e:	80 93 17 04 	sts	0x0417, r24	; 0x800417 <menynummer>
    1e22:	ec e1       	ldi	r30, 0x1C	; 28
    1e24:	f1 e0       	ldi	r31, 0x01	; 1
    1e26:	84 e1       	ldi	r24, 0x14	; 20
    1e28:	91 e0       	ldi	r25, 0x01	; 1
    1e2a:	4c e0       	ldi	r20, 0x0C	; 12
    1e2c:	51 e0       	ldi	r21, 0x01	; 1
					for (int i = 0; i < 4; i++){
						highscorename1[i] = ".";
    1e2e:	a1 92       	st	Z+, r10
    1e30:	b1 92       	st	Z+, r11
						highscorename2[i] = ".";
    1e32:	dc 01       	movw	r26, r24
    1e34:	ad 92       	st	X+, r10
    1e36:	bd 92       	st	X+, r11
    1e38:	cd 01       	movw	r24, r26
						highscorename3[i] = ".";
    1e3a:	da 01       	movw	r26, r20
    1e3c:	ad 92       	st	X+, r10
    1e3e:	bd 92       	st	X+, r11
    1e40:	ad 01       	movw	r20, r26
				else if (joy_pos.sidedir == 2){
					menynummer = 25;
				}
				else if (joy_button(1) == 0){
					menynummer = 1;
					for (int i = 0; i < 4; i++){
    1e42:	ee 16       	cp	r14, r30
    1e44:	ff 06       	cpc	r15, r31
    1e46:	99 f7       	brne	.-26     	; 0x1e2e <init_menu+0x142a>
						highscorename1[i] = ".";
						highscorename2[i] = ".";
						highscorename3[i] = ".";
					}
					highscorescore1 = 0;
    1e48:	10 92 1e 04 	sts	0x041E, r1	; 0x80041e <highscorescore1+0x1>
    1e4c:	10 92 1d 04 	sts	0x041D, r1	; 0x80041d <highscorescore1>
					highscorescore2 = 0;
    1e50:	10 92 1c 04 	sts	0x041C, r1	; 0x80041c <highscorescore2+0x1>
    1e54:	10 92 1b 04 	sts	0x041B, r1	; 0x80041b <highscorescore2>
					highscorescore3 = 0;
    1e58:	10 92 1a 04 	sts	0x041A, r1	; 0x80041a <highscorescore3+0x1>
    1e5c:	10 92 19 04 	sts	0x0419, r1	; 0x800419 <highscorescore3>
			OLED_pos(3,1);
			OLED_print("Are you sure?");
			OLED_pos(5, 1);
			OLED_print("  No   *Yes");
			_delay_ms(200);
			while(menynummer == 26){
    1e60:	80 91 17 04 	lds	r24, 0x0417	; 0x800417 <menynummer>
    1e64:	90 91 18 04 	lds	r25, 0x0418	; 0x800418 <menynummer+0x1>
    1e68:	4a 97       	sbiw	r24, 0x1a	; 26
    1e6a:	09 f4       	brne	.+2      	; 0x1e6e <init_menu+0x146a>
    1e6c:	af cf       	rjmp	.-162    	; 0x1dcc <init_menu+0x13c8>
    1e6e:	1c c2       	rjmp	.+1080   	; 0x22a8 <init_menu+0x18a4>
					highscorescore3 = 0;
				}
			}
			break;
		case 27 :	// Highscore sorting logic. Called when player finishes the game and jumps to case 1 ("Main menu - Start game") when it is done sorting
			OLED_clear();
    1e70:	0e 94 f0 11 	call	0x23e0	; 0x23e0 <OLED_clear>
			if (score >= highscorescore1){
    1e74:	80 91 39 04 	lds	r24, 0x0439	; 0x800439 <score>
    1e78:	90 91 3a 04 	lds	r25, 0x043A	; 0x80043a <score+0x1>
    1e7c:	20 91 1d 04 	lds	r18, 0x041D	; 0x80041d <highscorescore1>
    1e80:	30 91 1e 04 	lds	r19, 0x041E	; 0x80041e <highscorescore1+0x1>
    1e84:	82 17       	cp	r24, r18
    1e86:	93 07       	cpc	r25, r19
    1e88:	dc f1       	brlt	.+118    	; 0x1f00 <init_menu+0x14fc>
				char** endstr = OLED_nameprompt();
    1e8a:	0e 94 ce 12 	call	0x259c	; 0x259c <OLED_nameprompt>
    1e8e:	0c e0       	ldi	r16, 0x0C	; 12
    1e90:	11 e0       	ldi	r17, 0x01	; 1
    1e92:	a4 e1       	ldi	r26, 0x14	; 20
    1e94:	b1 e0       	ldi	r27, 0x01	; 1
    1e96:	ec e1       	ldi	r30, 0x1C	; 28
    1e98:	f1 e0       	ldi	r31, 0x01	; 1
    1e9a:	44 e1       	ldi	r20, 0x14	; 20
    1e9c:	51 e0       	ldi	r21, 0x01	; 1
    1e9e:	bf 01       	movw	r22, r30
				for (int i = 0; i < 4; i++){							// If score >= highest score, move everything down 1 rank and replace highest score with the achieved score
					highscorename3[i] = highscorename2[i];
    1ea0:	2d 91       	ld	r18, X+
    1ea2:	3c 91       	ld	r19, X
    1ea4:	11 97       	sbiw	r26, 0x01	; 1
    1ea6:	f8 01       	movw	r30, r16
    1ea8:	21 93       	st	Z+, r18
    1eaa:	31 93       	st	Z+, r19
    1eac:	8f 01       	movw	r16, r30
					highscorename2[i] = highscorename1[i];
    1eae:	fb 01       	movw	r30, r22
    1eb0:	20 81       	ld	r18, Z
    1eb2:	31 81       	ldd	r19, Z+1	; 0x01
    1eb4:	2d 93       	st	X+, r18
    1eb6:	3d 93       	st	X+, r19
					highscorename1[i] = endstr[i];
    1eb8:	fc 01       	movw	r30, r24
    1eba:	21 91       	ld	r18, Z+
    1ebc:	31 91       	ld	r19, Z+
    1ebe:	cf 01       	movw	r24, r30
    1ec0:	fb 01       	movw	r30, r22
    1ec2:	21 93       	st	Z+, r18
    1ec4:	31 93       	st	Z+, r19
    1ec6:	bf 01       	movw	r22, r30
			break;
		case 27 :	// Highscore sorting logic. Called when player finishes the game and jumps to case 1 ("Main menu - Start game") when it is done sorting
			OLED_clear();
			if (score >= highscorescore1){
				char** endstr = OLED_nameprompt();
				for (int i = 0; i < 4; i++){							// If score >= highest score, move everything down 1 rank and replace highest score with the achieved score
    1ec8:	04 17       	cp	r16, r20
    1eca:	15 07       	cpc	r17, r21
    1ecc:	49 f7       	brne	.-46     	; 0x1ea0 <init_menu+0x149c>
					highscorename3[i] = highscorename2[i];
					highscorename2[i] = highscorename1[i];
					highscorename1[i] = endstr[i];
					}
				highscorescore3 = highscorescore2;
    1ece:	80 91 1b 04 	lds	r24, 0x041B	; 0x80041b <highscorescore2>
    1ed2:	90 91 1c 04 	lds	r25, 0x041C	; 0x80041c <highscorescore2+0x1>
    1ed6:	90 93 1a 04 	sts	0x041A, r25	; 0x80041a <highscorescore3+0x1>
    1eda:	80 93 19 04 	sts	0x0419, r24	; 0x800419 <highscorescore3>
				highscorescore2 = highscorescore1;
    1ede:	80 91 1d 04 	lds	r24, 0x041D	; 0x80041d <highscorescore1>
    1ee2:	90 91 1e 04 	lds	r25, 0x041E	; 0x80041e <highscorescore1+0x1>
    1ee6:	90 93 1c 04 	sts	0x041C, r25	; 0x80041c <highscorescore2+0x1>
    1eea:	80 93 1b 04 	sts	0x041B, r24	; 0x80041b <highscorescore2>
				highscorescore1 = score;
    1eee:	80 91 39 04 	lds	r24, 0x0439	; 0x800439 <score>
    1ef2:	90 91 3a 04 	lds	r25, 0x043A	; 0x80043a <score+0x1>
    1ef6:	90 93 1e 04 	sts	0x041E, r25	; 0x80041e <highscorescore1+0x1>
    1efa:	80 93 1d 04 	sts	0x041D, r24	; 0x80041d <highscorescore1>
    1efe:	5b c0       	rjmp	.+182    	; 0x1fb6 <init_menu+0x15b2>
			}
			else if (score >= highscorescore2){							// Same as previous, but with the second highest score
    1f00:	20 91 1b 04 	lds	r18, 0x041B	; 0x80041b <highscorescore2>
    1f04:	30 91 1c 04 	lds	r19, 0x041C	; 0x80041c <highscorescore2+0x1>
    1f08:	82 17       	cp	r24, r18
    1f0a:	93 07       	cpc	r25, r19
    1f0c:	74 f1       	brlt	.+92     	; 0x1f6a <init_menu+0x1566>
				char** endstr = OLED_nameprompt();
    1f0e:	0e 94 ce 12 	call	0x259c	; 0x259c <OLED_nameprompt>
    1f12:	2e e0       	ldi	r18, 0x0E	; 14
    1f14:	31 e0       	ldi	r19, 0x01	; 1
    1f16:	3a 83       	std	Y+2, r19	; 0x02
    1f18:	29 83       	std	Y+1, r18	; 0x01
    1f1a:	dc 01       	movw	r26, r24
    1f1c:	12 96       	adiw	r26, 0x02	; 2
    1f1e:	e6 e1       	ldi	r30, 0x16	; 22
    1f20:	f1 e0       	ldi	r31, 0x01	; 1
    1f22:	08 96       	adiw	r24, 0x08	; 8
    1f24:	b9 01       	movw	r22, r18
    1f26:	af 01       	movw	r20, r30
				for (int i = 1; i < 4; i++){
					highscorename3[i] = highscorename2[i];
    1f28:	fa 01       	movw	r30, r20
    1f2a:	20 81       	ld	r18, Z
    1f2c:	31 81       	ldd	r19, Z+1	; 0x01
    1f2e:	fb 01       	movw	r30, r22
    1f30:	21 93       	st	Z+, r18
    1f32:	31 93       	st	Z+, r19
    1f34:	bf 01       	movw	r22, r30
					highscorename2[i] = endstr[i];
    1f36:	2d 91       	ld	r18, X+
    1f38:	3d 91       	ld	r19, X+
    1f3a:	fa 01       	movw	r30, r20
    1f3c:	21 93       	st	Z+, r18
    1f3e:	31 93       	st	Z+, r19
    1f40:	af 01       	movw	r20, r30
				highscorescore2 = highscorescore1;
				highscorescore1 = score;
			}
			else if (score >= highscorescore2){							// Same as previous, but with the second highest score
				char** endstr = OLED_nameprompt();
				for (int i = 1; i < 4; i++){
    1f42:	a8 17       	cp	r26, r24
    1f44:	b9 07       	cpc	r27, r25
    1f46:	81 f7       	brne	.-32     	; 0x1f28 <init_menu+0x1524>
					highscorename3[i] = highscorename2[i];
					highscorename2[i] = endstr[i];
				}
				highscorescore3 = highscorescore2;
    1f48:	80 91 1b 04 	lds	r24, 0x041B	; 0x80041b <highscorescore2>
    1f4c:	90 91 1c 04 	lds	r25, 0x041C	; 0x80041c <highscorescore2+0x1>
    1f50:	90 93 1a 04 	sts	0x041A, r25	; 0x80041a <highscorescore3+0x1>
    1f54:	80 93 19 04 	sts	0x0419, r24	; 0x800419 <highscorescore3>
				highscorescore2 = score;
    1f58:	80 91 39 04 	lds	r24, 0x0439	; 0x800439 <score>
    1f5c:	90 91 3a 04 	lds	r25, 0x043A	; 0x80043a <score+0x1>
    1f60:	90 93 1c 04 	sts	0x041C, r25	; 0x80041c <highscorescore2+0x1>
    1f64:	80 93 1b 04 	sts	0x041B, r24	; 0x80041b <highscorescore2>
    1f68:	26 c0       	rjmp	.+76     	; 0x1fb6 <init_menu+0x15b2>
			}
			else if (score >= highscorescore3){							// Same as previous, but with the third highest score
    1f6a:	20 91 19 04 	lds	r18, 0x0419	; 0x800419 <highscorescore3>
    1f6e:	30 91 1a 04 	lds	r19, 0x041A	; 0x80041a <highscorescore3+0x1>
    1f72:	82 17       	cp	r24, r18
    1f74:	93 07       	cpc	r25, r19
    1f76:	fc f0       	brlt	.+62     	; 0x1fb6 <init_menu+0x15b2>
				char** endstr = OLED_nameprompt();
    1f78:	0e 94 ce 12 	call	0x259c	; 0x259c <OLED_nameprompt>
    1f7c:	dc 01       	movw	r26, r24
				for (int i = 1; i < 4; i++){
					highscorename3[i] = endstr[i];
    1f7e:	12 96       	adiw	r26, 0x02	; 2
    1f80:	8d 91       	ld	r24, X+
    1f82:	9c 91       	ld	r25, X
    1f84:	13 97       	sbiw	r26, 0x03	; 3
    1f86:	ec e0       	ldi	r30, 0x0C	; 12
    1f88:	f1 e0       	ldi	r31, 0x01	; 1
    1f8a:	93 83       	std	Z+3, r25	; 0x03
    1f8c:	82 83       	std	Z+2, r24	; 0x02
    1f8e:	14 96       	adiw	r26, 0x04	; 4
    1f90:	8d 91       	ld	r24, X+
    1f92:	9c 91       	ld	r25, X
    1f94:	15 97       	sbiw	r26, 0x05	; 5
    1f96:	95 83       	std	Z+5, r25	; 0x05
    1f98:	84 83       	std	Z+4, r24	; 0x04
    1f9a:	16 96       	adiw	r26, 0x06	; 6
    1f9c:	8d 91       	ld	r24, X+
    1f9e:	9c 91       	ld	r25, X
    1fa0:	17 97       	sbiw	r26, 0x07	; 7
    1fa2:	97 83       	std	Z+7, r25	; 0x07
    1fa4:	86 83       	std	Z+6, r24	; 0x06
				}
				highscorescore3 = score;
    1fa6:	80 91 39 04 	lds	r24, 0x0439	; 0x800439 <score>
    1faa:	90 91 3a 04 	lds	r25, 0x043A	; 0x80043a <score+0x1>
    1fae:	90 93 1a 04 	sts	0x041A, r25	; 0x80041a <highscorescore3+0x1>
    1fb2:	80 93 19 04 	sts	0x0419, r24	; 0x800419 <highscorescore3>
			}
			menynummer = 1;
    1fb6:	81 e0       	ldi	r24, 0x01	; 1
    1fb8:	90 e0       	ldi	r25, 0x00	; 0
    1fba:	90 93 18 04 	sts	0x0418, r25	; 0x800418 <menynummer+0x1>
    1fbe:	80 93 17 04 	sts	0x0417, r24	; 0x800417 <menynummer>
			break;
    1fc2:	72 c1       	rjmp	.+740    	; 0x22a8 <init_menu+0x18a4>
		case 28 :	// Mini-Pong. Ping-pong game played on the OLED-screen.
			OLED_clear();
    1fc4:	0e 94 f0 11 	call	0x23e0	; 0x23e0 <OLED_clear>
			float v = 2;																// Position of slider
    1fc8:	80 e0       	ldi	r24, 0x00	; 0
    1fca:	90 e0       	ldi	r25, 0x00	; 0
    1fcc:	a0 e0       	ldi	r26, 0x00	; 0
    1fce:	b0 e4       	ldi	r27, 0x40	; 64
    1fd0:	8d 83       	std	Y+5, r24	; 0x05
    1fd2:	9e 83       	std	Y+6, r25	; 0x06
    1fd4:	af 83       	std	Y+7, r26	; 0x07
    1fd6:	b8 87       	std	Y+8, r27	; 0x08
			y = 2;																		// Position of ball on screen (y-axis)
			x = 1;																		// Position of ball on screen (x-axis)
			z = 1;																		// Inverter
			w = 1;																		// Inverter
			counter = 0;																// Score counter
    1fd8:	00 e0       	ldi	r16, 0x00	; 0
    1fda:	10 e0       	ldi	r17, 0x00	; 0
			break;
		case 28 :	// Mini-Pong. Ping-pong game played on the OLED-screen.
			OLED_clear();
			float v = 2;																// Position of slider
			y = 2;																		// Position of ball on screen (y-axis)
			x = 1;																		// Position of ball on screen (x-axis)
    1fdc:	80 e0       	ldi	r24, 0x00	; 0
    1fde:	90 e0       	ldi	r25, 0x00	; 0
    1fe0:	a0 e8       	ldi	r26, 0x80	; 128
    1fe2:	bf e3       	ldi	r27, 0x3F	; 63
    1fe4:	89 83       	std	Y+1, r24	; 0x01
    1fe6:	9a 83       	std	Y+2, r25	; 0x02
    1fe8:	ab 83       	std	Y+3, r26	; 0x03
    1fea:	bc 83       	std	Y+4, r27	; 0x04
			z = 1;																		// Inverter
			w = 1;																		// Inverter
    1fec:	4c 01       	movw	r8, r24
    1fee:	5d 01       	movw	r10, r26
		case 28 :	// Mini-Pong. Ping-pong game played on the OLED-screen.
			OLED_clear();
			float v = 2;																// Position of slider
			y = 2;																		// Position of ball on screen (y-axis)
			x = 1;																		// Position of ball on screen (x-axis)
			z = 1;																		// Inverter
    1ff0:	2c 01       	movw	r4, r24
    1ff2:	3d 01       	movw	r6, r26
			menynummer = 1;
			break;
		case 28 :	// Mini-Pong. Ping-pong game played on the OLED-screen.
			OLED_clear();
			float v = 2;																// Position of slider
			y = 2;																		// Position of ball on screen (y-axis)
    1ff4:	c1 2c       	mov	r12, r1
    1ff6:	d1 2c       	mov	r13, r1
    1ff8:	76 01       	movw	r14, r12
    1ffa:	68 94       	set
    1ffc:	f6 f8       	bld	r15, 6
			x = 1;																		// Position of ball on screen (x-axis)
			z = 1;																		// Inverter
			w = 1;																		// Inverter
			counter = 0;																// Score counter
			while (menynummer == 28){
    1ffe:	4d c1       	rjmp	.+666    	; 0x229a <init_menu+0x1896>
				OLED_clear();
    2000:	0e 94 f0 11 	call	0x23e0	; 0x23e0 <OLED_clear>
				OLED_pos(7,v-2);														// Placement and print of the slider
    2004:	20 e0       	ldi	r18, 0x00	; 0
    2006:	30 e0       	ldi	r19, 0x00	; 0
    2008:	40 e0       	ldi	r20, 0x00	; 0
    200a:	50 e4       	ldi	r21, 0x40	; 64
    200c:	6d 81       	ldd	r22, Y+5	; 0x05
    200e:	7e 81       	ldd	r23, Y+6	; 0x06
    2010:	8f 81       	ldd	r24, Y+7	; 0x07
    2012:	98 85       	ldd	r25, Y+8	; 0x08
    2014:	0e 94 8f 15 	call	0x2b1e	; 0x2b1e <__subsf3>
    2018:	69 87       	std	Y+9, r22	; 0x09
    201a:	7a 87       	std	Y+10, r23	; 0x0a
    201c:	8b 87       	std	Y+11, r24	; 0x0b
    201e:	9c 87       	std	Y+12, r25	; 0x0c
    2020:	0e 94 01 16 	call	0x2c02	; 0x2c02 <__fixunssfsi>
    2024:	87 e0       	ldi	r24, 0x07	; 7
    2026:	0e 94 c3 11 	call	0x2386	; 0x2386 <OLED_pos>
				OLED_print("]_`");
    202a:	85 e1       	ldi	r24, 0x15	; 21
    202c:	92 e0       	ldi	r25, 0x02	; 2
    202e:	0e 94 bd 12 	call	0x257a	; 0x257a <OLED_print>
				OLED_pos(y,x);															// Placement and print of the ball
    2032:	69 81       	ldd	r22, Y+1	; 0x01
    2034:	7a 81       	ldd	r23, Y+2	; 0x02
    2036:	8b 81       	ldd	r24, Y+3	; 0x03
    2038:	9c 81       	ldd	r25, Y+4	; 0x04
    203a:	0e 94 01 16 	call	0x2c02	; 0x2c02 <__fixunssfsi>
    203e:	36 2e       	mov	r3, r22
    2040:	c7 01       	movw	r24, r14
    2042:	b6 01       	movw	r22, r12
    2044:	0e 94 01 16 	call	0x2c02	; 0x2c02 <__fixunssfsi>
    2048:	86 2f       	mov	r24, r22
    204a:	63 2d       	mov	r22, r3
    204c:	0e 94 c3 11 	call	0x2386	; 0x2386 <OLED_pos>
				OLED_print("~");
    2050:	84 e7       	ldi	r24, 0x74	; 116
    2052:	93 e0       	ldi	r25, 0x03	; 3
    2054:	0e 94 bd 12 	call	0x257a	; 0x257a <OLED_print>
				OLED_pos(8,7);
    2058:	67 e0       	ldi	r22, 0x07	; 7
    205a:	88 e0       	ldi	r24, 0x08	; 8
    205c:	0e 94 c3 11 	call	0x2386	; 0x2386 <OLED_pos>
				if ((y == 6)&&((round(x) == v)||(round(x) == v-1)||round(x) == v-2)){	// If the ball hits the slider, add 1 to the score.
    2060:	20 e0       	ldi	r18, 0x00	; 0
    2062:	30 e0       	ldi	r19, 0x00	; 0
    2064:	40 ec       	ldi	r20, 0xC0	; 192
    2066:	50 e4       	ldi	r21, 0x40	; 64
    2068:	c7 01       	movw	r24, r14
    206a:	b6 01       	movw	r22, r12
    206c:	0e 94 fc 15 	call	0x2bf8	; 0x2bf8 <__cmpsf2>
    2070:	81 11       	cpse	r24, r1
    2072:	36 c0       	rjmp	.+108    	; 0x20e0 <init_menu+0x16dc>
    2074:	69 81       	ldd	r22, Y+1	; 0x01
    2076:	7a 81       	ldd	r23, Y+2	; 0x02
    2078:	8b 81       	ldd	r24, Y+3	; 0x03
    207a:	9c 81       	ldd	r25, Y+4	; 0x04
    207c:	0e 94 17 17 	call	0x2e2e	; 0x2e2e <round>
    2080:	6d 87       	std	Y+13, r22	; 0x0d
    2082:	7e 87       	std	Y+14, r23	; 0x0e
    2084:	8f 87       	std	Y+15, r24	; 0x0f
    2086:	98 8b       	std	Y+16, r25	; 0x10
    2088:	9b 01       	movw	r18, r22
    208a:	ac 01       	movw	r20, r24
    208c:	6d 81       	ldd	r22, Y+5	; 0x05
    208e:	7e 81       	ldd	r23, Y+6	; 0x06
    2090:	8f 81       	ldd	r24, Y+7	; 0x07
    2092:	98 85       	ldd	r25, Y+8	; 0x08
    2094:	0e 94 fc 15 	call	0x2bf8	; 0x2bf8 <__cmpsf2>
    2098:	88 23       	and	r24, r24
    209a:	01 f1       	breq	.+64     	; 0x20dc <init_menu+0x16d8>
    209c:	20 e0       	ldi	r18, 0x00	; 0
    209e:	30 e0       	ldi	r19, 0x00	; 0
    20a0:	40 e8       	ldi	r20, 0x80	; 128
    20a2:	5f e3       	ldi	r21, 0x3F	; 63
    20a4:	6d 81       	ldd	r22, Y+5	; 0x05
    20a6:	7e 81       	ldd	r23, Y+6	; 0x06
    20a8:	8f 81       	ldd	r24, Y+7	; 0x07
    20aa:	98 85       	ldd	r25, Y+8	; 0x08
    20ac:	0e 94 8f 15 	call	0x2b1e	; 0x2b1e <__subsf3>
    20b0:	9b 01       	movw	r18, r22
    20b2:	ac 01       	movw	r20, r24
    20b4:	6d 85       	ldd	r22, Y+13	; 0x0d
    20b6:	7e 85       	ldd	r23, Y+14	; 0x0e
    20b8:	8f 85       	ldd	r24, Y+15	; 0x0f
    20ba:	98 89       	ldd	r25, Y+16	; 0x10
    20bc:	0e 94 fc 15 	call	0x2bf8	; 0x2bf8 <__cmpsf2>
    20c0:	88 23       	and	r24, r24
    20c2:	61 f0       	breq	.+24     	; 0x20dc <init_menu+0x16d8>
    20c4:	2d 85       	ldd	r18, Y+13	; 0x0d
    20c6:	3e 85       	ldd	r19, Y+14	; 0x0e
    20c8:	4f 85       	ldd	r20, Y+15	; 0x0f
    20ca:	58 89       	ldd	r21, Y+16	; 0x10
    20cc:	69 85       	ldd	r22, Y+9	; 0x09
    20ce:	7a 85       	ldd	r23, Y+10	; 0x0a
    20d0:	8b 85       	ldd	r24, Y+11	; 0x0b
    20d2:	9c 85       	ldd	r25, Y+12	; 0x0c
    20d4:	0e 94 fc 15 	call	0x2bf8	; 0x2bf8 <__cmpsf2>
    20d8:	81 11       	cpse	r24, r1
    20da:	06 c0       	rjmp	.+12     	; 0x20e8 <init_menu+0x16e4>
					counter = counter + 1;
    20dc:	0f 5f       	subi	r16, 0xFF	; 255
    20de:	1f 4f       	sbci	r17, 0xFF	; 255
				}
				else if (y == 6){														// If the ball is on the bottom of the screen, but miss the slider, reset score
					counter = 0;
				}
				if (counter < 10){														// Cosmetic, add "00" in front of the score if it is a single digit number
    20e0:	0a 30       	cpi	r16, 0x0A	; 10
    20e2:	11 05       	cpc	r17, r1
    20e4:	44 f4       	brge	.+16     	; 0x20f6 <init_menu+0x16f2>
    20e6:	02 c0       	rjmp	.+4      	; 0x20ec <init_menu+0x16e8>
				OLED_pos(8,7);
				if ((y == 6)&&((round(x) == v)||(round(x) == v-1)||round(x) == v-2)){	// If the ball hits the slider, add 1 to the score.
					counter = counter + 1;
				}
				else if (y == 6){														// If the ball is on the bottom of the screen, but miss the slider, reset score
					counter = 0;
    20e8:	00 e0       	ldi	r16, 0x00	; 0
    20ea:	10 e0       	ldi	r17, 0x00	; 0
				}
				if (counter < 10){														// Cosmetic, add "00" in front of the score if it is a single digit number
					OLED_print("00");
    20ec:	89 e1       	ldi	r24, 0x19	; 25
    20ee:	92 e0       	ldi	r25, 0x02	; 2
    20f0:	0e 94 bd 12 	call	0x257a	; 0x257a <OLED_print>
    20f4:	07 c0       	rjmp	.+14     	; 0x2104 <init_menu+0x1700>
				}
				else if (counter < 100){												// Cosmetic, add "0" in front of the score if it is a double digit number
    20f6:	04 36       	cpi	r16, 0x64	; 100
    20f8:	11 05       	cpc	r17, r1
    20fa:	24 f4       	brge	.+8      	; 0x2104 <init_menu+0x1700>
					OLED_print("0");
    20fc:	8a e1       	ldi	r24, 0x1A	; 26
    20fe:	92 e0       	ldi	r25, 0x02	; 2
    2100:	0e 94 bd 12 	call	0x257a	; 0x257a <OLED_print>
    2104:	4a e0       	ldi	r20, 0x0A	; 10
    2106:	68 e4       	ldi	r22, 0x48	; 72
    2108:	74 e0       	ldi	r23, 0x04	; 4
    210a:	c8 01       	movw	r24, r16
    210c:	0e 94 9d 17 	call	0x2f3a	; 0x2f3a <__itoa_ncheck>
				}
				OLED_print(itoa(counter, buffer, 10));									// Print counter. itoa() converts from number to string (10 sets the decimal number system)
    2110:	0e 94 bd 12 	call	0x257a	; 0x257a <OLED_print>
				
				x = x + z*0.25;															// Speed of ball in x-axis, z is a positive or negative number, depending on ball direction
    2114:	20 e0       	ldi	r18, 0x00	; 0
    2116:	30 e0       	ldi	r19, 0x00	; 0
    2118:	40 e8       	ldi	r20, 0x80	; 128
    211a:	5e e3       	ldi	r21, 0x3E	; 62
    211c:	c3 01       	movw	r24, r6
    211e:	b2 01       	movw	r22, r4
    2120:	0e 94 aa 16 	call	0x2d54	; 0x2d54 <__mulsf3>
    2124:	9b 01       	movw	r18, r22
    2126:	ac 01       	movw	r20, r24
    2128:	69 81       	ldd	r22, Y+1	; 0x01
    212a:	7a 81       	ldd	r23, Y+2	; 0x02
    212c:	8b 81       	ldd	r24, Y+3	; 0x03
    212e:	9c 81       	ldd	r25, Y+4	; 0x04
    2130:	0e 94 90 15 	call	0x2b20	; 0x2b20 <__addsf3>
    2134:	69 83       	std	Y+1, r22	; 0x01
    2136:	7a 83       	std	Y+2, r23	; 0x02
    2138:	8b 83       	std	Y+3, r24	; 0x03
    213a:	9c 83       	std	Y+4, r25	; 0x04
				y = y + w*0.5;															// Speed of ball in y-axis, w is a positive or negative number, depending on ball direction
    213c:	20 e0       	ldi	r18, 0x00	; 0
    213e:	30 e0       	ldi	r19, 0x00	; 0
    2140:	40 e0       	ldi	r20, 0x00	; 0
    2142:	5f e3       	ldi	r21, 0x3F	; 63
    2144:	c5 01       	movw	r24, r10
    2146:	b4 01       	movw	r22, r8
    2148:	0e 94 aa 16 	call	0x2d54	; 0x2d54 <__mulsf3>
    214c:	9b 01       	movw	r18, r22
    214e:	ac 01       	movw	r20, r24
    2150:	c7 01       	movw	r24, r14
    2152:	b6 01       	movw	r22, r12
    2154:	0e 94 90 15 	call	0x2b20	; 0x2b20 <__addsf3>
    2158:	6b 01       	movw	r12, r22
    215a:	7c 01       	movw	r14, r24
				
				if (y == 6){w = w*-1;}													// If the ball hits the bottom or top side of the screen, invert our speed-increment (*-1)
    215c:	20 e0       	ldi	r18, 0x00	; 0
    215e:	30 e0       	ldi	r19, 0x00	; 0
    2160:	40 ec       	ldi	r20, 0xC0	; 192
    2162:	50 e4       	ldi	r21, 0x40	; 64
    2164:	0e 94 fc 15 	call	0x2bf8	; 0x2bf8 <__cmpsf2>
    2168:	81 11       	cpse	r24, r1
    216a:	05 c0       	rjmp	.+10     	; 0x2176 <init_menu+0x1772>
    216c:	b7 fa       	bst	r11, 7
    216e:	b0 94       	com	r11
    2170:	b7 f8       	bld	r11, 7
    2172:	b0 94       	com	r11
    2174:	0e c0       	rjmp	.+28     	; 0x2192 <init_menu+0x178e>
				if (y == 2){w = w*-1;}													
    2176:	20 e0       	ldi	r18, 0x00	; 0
    2178:	30 e0       	ldi	r19, 0x00	; 0
    217a:	40 e0       	ldi	r20, 0x00	; 0
    217c:	50 e4       	ldi	r21, 0x40	; 64
    217e:	c7 01       	movw	r24, r14
    2180:	b6 01       	movw	r22, r12
    2182:	0e 94 fc 15 	call	0x2bf8	; 0x2bf8 <__cmpsf2>
    2186:	81 11       	cpse	r24, r1
    2188:	04 c0       	rjmp	.+8      	; 0x2192 <init_menu+0x178e>
    218a:	b7 fa       	bst	r11, 7
    218c:	b0 94       	com	r11
    218e:	b7 f8       	bld	r11, 7
    2190:	b0 94       	com	r11
				if (x == 15){z = z*-1;}													// If the ball hits one of the sides of the screen, invert our speed increment (*-1)
    2192:	20 e0       	ldi	r18, 0x00	; 0
    2194:	30 e0       	ldi	r19, 0x00	; 0
    2196:	40 e7       	ldi	r20, 0x70	; 112
    2198:	51 e4       	ldi	r21, 0x41	; 65
    219a:	69 81       	ldd	r22, Y+1	; 0x01
    219c:	7a 81       	ldd	r23, Y+2	; 0x02
    219e:	8b 81       	ldd	r24, Y+3	; 0x03
    21a0:	9c 81       	ldd	r25, Y+4	; 0x04
    21a2:	0e 94 fc 15 	call	0x2bf8	; 0x2bf8 <__cmpsf2>
    21a6:	81 11       	cpse	r24, r1
    21a8:	05 c0       	rjmp	.+10     	; 0x21b4 <init_menu+0x17b0>
    21aa:	77 fa       	bst	r7, 7
    21ac:	70 94       	com	r7
    21ae:	77 f8       	bld	r7, 7
    21b0:	70 94       	com	r7
    21b2:	0f c0       	rjmp	.+30     	; 0x21d2 <init_menu+0x17ce>
				if (x == 0){z = z*-1;}
    21b4:	20 e0       	ldi	r18, 0x00	; 0
    21b6:	30 e0       	ldi	r19, 0x00	; 0
    21b8:	a9 01       	movw	r20, r18
    21ba:	69 81       	ldd	r22, Y+1	; 0x01
    21bc:	7a 81       	ldd	r23, Y+2	; 0x02
    21be:	8b 81       	ldd	r24, Y+3	; 0x03
    21c0:	9c 81       	ldd	r25, Y+4	; 0x04
    21c2:	0e 94 fc 15 	call	0x2bf8	; 0x2bf8 <__cmpsf2>
    21c6:	81 11       	cpse	r24, r1
    21c8:	04 c0       	rjmp	.+8      	; 0x21d2 <init_menu+0x17ce>
    21ca:	77 fa       	bst	r7, 7
    21cc:	70 94       	com	r7
    21ce:	77 f8       	bld	r7, 7
    21d0:	70 94       	com	r7
				joy_pos = JOY_getDirection();
    21d2:	0e 94 b6 03 	call	0x76c	; 0x76c <JOY_getDirection>
    21d6:	60 93 40 04 	sts	0x0440, r22	; 0x800440 <joy_pos>
    21da:	70 93 41 04 	sts	0x0441, r23	; 0x800441 <joy_pos+0x1>
    21de:	80 93 42 04 	sts	0x0442, r24	; 0x800442 <joy_pos+0x2>
    21e2:	90 93 43 04 	sts	0x0443, r25	; 0x800443 <joy_pos+0x3>
				int timer = 350/vanskelighetsgrad;
				my_delay_ms(timer);														// Game speed
    21e6:	60 91 24 01 	lds	r22, 0x0124	; 0x800124 <vanskelighetsgrad>
    21ea:	70 e0       	ldi	r23, 0x00	; 0
    21ec:	8e e5       	ldi	r24, 0x5E	; 94
    21ee:	91 e0       	ldi	r25, 0x01	; 1
    21f0:	0e 94 64 17 	call	0x2ec8	; 0x2ec8 <__divmodhi4>
    21f4:	cb 01       	movw	r24, r22
    21f6:	0e 94 4b 15 	call	0x2a96	; 0x2a96 <my_delay_ms>
				if (joy_pos.sidedir == 1){												// Moving the joystick to the right moves the slider to the left
    21fa:	80 91 43 04 	lds	r24, 0x0443	; 0x800443 <joy_pos+0x3>
    21fe:	81 30       	cpi	r24, 0x01	; 1
    2200:	f9 f4       	brne	.+62     	; 0x2240 <init_menu+0x183c>
					v = v + 1;
    2202:	20 e0       	ldi	r18, 0x00	; 0
    2204:	30 e0       	ldi	r19, 0x00	; 0
    2206:	40 e8       	ldi	r20, 0x80	; 128
    2208:	5f e3       	ldi	r21, 0x3F	; 63
    220a:	6d 81       	ldd	r22, Y+5	; 0x05
    220c:	7e 81       	ldd	r23, Y+6	; 0x06
    220e:	8f 81       	ldd	r24, Y+7	; 0x07
    2210:	98 85       	ldd	r25, Y+8	; 0x08
    2212:	0e 94 90 15 	call	0x2b20	; 0x2b20 <__addsf3>
    2216:	6d 83       	std	Y+5, r22	; 0x05
    2218:	7e 83       	std	Y+6, r23	; 0x06
    221a:	8f 83       	std	Y+7, r24	; 0x07
    221c:	98 87       	std	Y+8, r25	; 0x08
					if (v > 15){														// Make sure joystick doesent move out of the screen
    221e:	20 e0       	ldi	r18, 0x00	; 0
    2220:	30 e0       	ldi	r19, 0x00	; 0
    2222:	40 e7       	ldi	r20, 0x70	; 112
    2224:	51 e4       	ldi	r21, 0x41	; 65
    2226:	0e 94 a5 16 	call	0x2d4a	; 0x2d4a <__gesf2>
    222a:	18 16       	cp	r1, r24
    222c:	b4 f5       	brge	.+108    	; 0x229a <init_menu+0x1896>
						v = 15;
    222e:	80 e0       	ldi	r24, 0x00	; 0
    2230:	90 e0       	ldi	r25, 0x00	; 0
    2232:	a0 e7       	ldi	r26, 0x70	; 112
    2234:	b1 e4       	ldi	r27, 0x41	; 65
    2236:	8d 83       	std	Y+5, r24	; 0x05
    2238:	9e 83       	std	Y+6, r25	; 0x06
    223a:	af 83       	std	Y+7, r26	; 0x07
    223c:	b8 87       	std	Y+8, r27	; 0x08
    223e:	2d c0       	rjmp	.+90     	; 0x229a <init_menu+0x1896>
					}				}
				else if (joy_pos.sidedir == 2){
    2240:	82 30       	cpi	r24, 0x02	; 2
    2242:	f9 f4       	brne	.+62     	; 0x2282 <init_menu+0x187e>
					v = v - 1;
    2244:	20 e0       	ldi	r18, 0x00	; 0
    2246:	30 e0       	ldi	r19, 0x00	; 0
    2248:	40 e8       	ldi	r20, 0x80	; 128
    224a:	5f e3       	ldi	r21, 0x3F	; 63
    224c:	6d 81       	ldd	r22, Y+5	; 0x05
    224e:	7e 81       	ldd	r23, Y+6	; 0x06
    2250:	8f 81       	ldd	r24, Y+7	; 0x07
    2252:	98 85       	ldd	r25, Y+8	; 0x08
    2254:	0e 94 8f 15 	call	0x2b1e	; 0x2b1e <__subsf3>
    2258:	6d 83       	std	Y+5, r22	; 0x05
    225a:	7e 83       	std	Y+6, r23	; 0x06
    225c:	8f 83       	std	Y+7, r24	; 0x07
    225e:	98 87       	std	Y+8, r25	; 0x08
					if (v < 1){
    2260:	20 e0       	ldi	r18, 0x00	; 0
    2262:	30 e0       	ldi	r19, 0x00	; 0
    2264:	40 e8       	ldi	r20, 0x80	; 128
    2266:	5f e3       	ldi	r21, 0x3F	; 63
    2268:	0e 94 fc 15 	call	0x2bf8	; 0x2bf8 <__cmpsf2>
    226c:	88 23       	and	r24, r24
    226e:	ac f4       	brge	.+42     	; 0x229a <init_menu+0x1896>
						v = 1;
    2270:	80 e0       	ldi	r24, 0x00	; 0
    2272:	90 e0       	ldi	r25, 0x00	; 0
    2274:	a0 e8       	ldi	r26, 0x80	; 128
    2276:	bf e3       	ldi	r27, 0x3F	; 63
    2278:	8d 83       	std	Y+5, r24	; 0x05
    227a:	9e 83       	std	Y+6, r25	; 0x06
    227c:	af 83       	std	Y+7, r26	; 0x07
    227e:	b8 87       	std	Y+8, r27	; 0x08
    2280:	0c c0       	rjmp	.+24     	; 0x229a <init_menu+0x1896>
					}
				}
				else if (joy_button(1) == 0){											// If button is pressed, exit game and return to main menu
    2282:	81 e0       	ldi	r24, 0x01	; 1
    2284:	90 e0       	ldi	r25, 0x00	; 0
    2286:	0e 94 3d 03 	call	0x67a	; 0x67a <joy_button>
    228a:	89 2b       	or	r24, r25
    228c:	31 f4       	brne	.+12     	; 0x229a <init_menu+0x1896>
					menynummer = 1;
    228e:	81 e0       	ldi	r24, 0x01	; 1
    2290:	90 e0       	ldi	r25, 0x00	; 0
    2292:	90 93 18 04 	sts	0x0418, r25	; 0x800418 <menynummer+0x1>
    2296:	80 93 17 04 	sts	0x0417, r24	; 0x800417 <menynummer>
			y = 2;																		// Position of ball on screen (y-axis)
			x = 1;																		// Position of ball on screen (x-axis)
			z = 1;																		// Inverter
			w = 1;																		// Inverter
			counter = 0;																// Score counter
			while (menynummer == 28){
    229a:	80 91 17 04 	lds	r24, 0x0417	; 0x800417 <menynummer>
    229e:	90 91 18 04 	lds	r25, 0x0418	; 0x800418 <menynummer+0x1>
    22a2:	4c 97       	sbiw	r24, 0x1c	; 28
    22a4:	09 f4       	brne	.+2      	; 0x22a8 <init_menu+0x18a4>
    22a6:	ac ce       	rjmp	.-680    	; 0x2000 <init_menu+0x15fc>
				}
			}
			break;
	}
return gamestep;
    22a8:	80 91 08 01 	lds	r24, 0x0108	; 0x800108 <gamestep>
    22ac:	90 91 09 01 	lds	r25, 0x0109	; 0x800109 <gamestep+0x1>
    22b0:	60 96       	adiw	r28, 0x10	; 16
    22b2:	0f b6       	in	r0, 0x3f	; 63
    22b4:	f8 94       	cli
    22b6:	de bf       	out	0x3e, r29	; 62
    22b8:	0f be       	out	0x3f, r0	; 63
    22ba:	cd bf       	out	0x3d, r28	; 61
    22bc:	df 91       	pop	r29
    22be:	cf 91       	pop	r28
    22c0:	1f 91       	pop	r17
    22c2:	0f 91       	pop	r16
    22c4:	ff 90       	pop	r15
    22c6:	ef 90       	pop	r14
    22c8:	df 90       	pop	r13
    22ca:	cf 90       	pop	r12
    22cc:	bf 90       	pop	r11
    22ce:	af 90       	pop	r10
    22d0:	9f 90       	pop	r9
    22d2:	8f 90       	pop	r8
    22d4:	7f 90       	pop	r7
    22d6:	6f 90       	pop	r6
    22d8:	5f 90       	pop	r5
    22da:	4f 90       	pop	r4
    22dc:	3f 90       	pop	r3
    22de:	2f 90       	pop	r2
    22e0:	08 95       	ret

000022e2 <OLED_home>:
}

//function that returns the OLED to its start-state
int OLED_home(void) {
	//Reset the page and column
	page = 0;
    22e2:	10 92 3f 04 	sts	0x043F, r1	; 0x80043f <page>
	col = 0;
    22e6:	10 92 3c 04 	sts	0x043C, r1	; 0x80043c <col>
	*OLED_cmd =0xD3; 	
    22ea:	e0 91 27 01 	lds	r30, 0x0127	; 0x800127 <OLED_cmd>
    22ee:	f0 91 28 01 	lds	r31, 0x0128	; 0x800128 <OLED_cmd+0x1>
    22f2:	83 ed       	ldi	r24, 0xD3	; 211
    22f4:	80 83       	st	Z, r24
	*OLED_cmd = 0b11001000;
    22f6:	e0 91 27 01 	lds	r30, 0x0127	; 0x800127 <OLED_cmd>
    22fa:	f0 91 28 01 	lds	r31, 0x0128	; 0x800128 <OLED_cmd+0x1>
    22fe:	88 ec       	ldi	r24, 0xC8	; 200
    2300:	80 83       	st	Z, r24
	//Set the cursor to the start of the screen
	*OLED_cmd = 0x21;
    2302:	e0 91 27 01 	lds	r30, 0x0127	; 0x800127 <OLED_cmd>
    2306:	f0 91 28 01 	lds	r31, 0x0128	; 0x800128 <OLED_cmd+0x1>
    230a:	81 e2       	ldi	r24, 0x21	; 33
    230c:	80 83       	st	Z, r24
	*OLED_cmd = 0x00;
    230e:	e0 91 27 01 	lds	r30, 0x0127	; 0x800127 <OLED_cmd>
    2312:	f0 91 28 01 	lds	r31, 0x0128	; 0x800128 <OLED_cmd+0x1>
    2316:	10 82       	st	Z, r1
	*OLED_cmd = 0x7f;
    2318:	e0 91 27 01 	lds	r30, 0x0127	; 0x800127 <OLED_cmd>
    231c:	f0 91 28 01 	lds	r31, 0x0128	; 0x800128 <OLED_cmd+0x1>
    2320:	8f e7       	ldi	r24, 0x7F	; 127
    2322:	80 83       	st	Z, r24
		
	*OLED_cmd = 0x22;
    2324:	e0 91 27 01 	lds	r30, 0x0127	; 0x800127 <OLED_cmd>
    2328:	f0 91 28 01 	lds	r31, 0x0128	; 0x800128 <OLED_cmd+0x1>
    232c:	82 e2       	ldi	r24, 0x22	; 34
    232e:	80 83       	st	Z, r24
	*OLED_cmd = 0x00;
    2330:	e0 91 27 01 	lds	r30, 0x0127	; 0x800127 <OLED_cmd>
    2334:	f0 91 28 01 	lds	r31, 0x0128	; 0x800128 <OLED_cmd+0x1>
    2338:	10 82       	st	Z, r1
	*OLED_cmd = 0x7;
    233a:	e0 91 27 01 	lds	r30, 0x0127	; 0x800127 <OLED_cmd>
    233e:	f0 91 28 01 	lds	r31, 0x0128	; 0x800128 <OLED_cmd+0x1>
    2342:	87 e0       	ldi	r24, 0x07	; 7
    2344:	80 83       	st	Z, r24
		
 	return 0;
 }
    2346:	80 e0       	ldi	r24, 0x00	; 0
    2348:	90 e0       	ldi	r25, 0x00	; 0
    234a:	08 95       	ret

0000234c <OLED_goto_line>:
 
//function that lets us go to the specified line on the OLED 
int OLED_goto_line(uint8_t line) {
    234c:	cf 93       	push	r28
    234e:	c8 2f       	mov	r28, r24
	OLED_home();
    2350:	0e 94 71 11 	call	0x22e2	; 0x22e2 <OLED_home>
	
	//Check if it's a valid page
	if (line < 8) {
    2354:	c8 30       	cpi	r28, 0x08	; 8
    2356:	98 f4       	brcc	.+38     	; 0x237e <OLED_goto_line+0x32>
		//Save the page we are moving to
		page = line;
    2358:	c0 93 3f 04 	sts	0x043F, r28	; 0x80043f <page>
		//Set lower column address
		*OLED_cmd = 0x00;
    235c:	e0 91 27 01 	lds	r30, 0x0127	; 0x800127 <OLED_cmd>
    2360:	f0 91 28 01 	lds	r31, 0x0128	; 0x800128 <OLED_cmd+0x1>
    2364:	10 82       	st	Z, r1
		//Set higher column address
		*OLED_cmd = 0x10;
    2366:	e0 91 27 01 	lds	r30, 0x0127	; 0x800127 <OLED_cmd>
    236a:	f0 91 28 01 	lds	r31, 0x0128	; 0x800128 <OLED_cmd+0x1>
    236e:	80 e1       	ldi	r24, 0x10	; 16
    2370:	80 83       	st	Z, r24
		//Set page address
		*OLED_cmd = 0xB0 | line;
    2372:	e0 91 27 01 	lds	r30, 0x0127	; 0x800127 <OLED_cmd>
    2376:	f0 91 28 01 	lds	r31, 0x0128	; 0x800128 <OLED_cmd+0x1>
    237a:	c0 6b       	ori	r28, 0xB0	; 176
    237c:	c0 83       	st	Z, r28
	}
 
 	return 0;
 }
    237e:	80 e0       	ldi	r24, 0x00	; 0
    2380:	90 e0       	ldi	r25, 0x00	; 0
    2382:	cf 91       	pop	r28
    2384:	08 95       	ret

00002386 <OLED_pos>:

//function that lets us define a specific position on the OLED
int OLED_pos(uint8_t line, uint8_t column) {
    2386:	cf 93       	push	r28
    2388:	c6 2f       	mov	r28, r22
	OLED_goto_line(line);
    238a:	0e 94 a6 11 	call	0x234c	; 0x234c <OLED_goto_line>
	
	//Check if it's a valid column according to the font
	if (column < (128/FONTWIDTH)) {
    238e:	c0 31       	cpi	r28, 0x10	; 16
    2390:	98 f4       	brcc	.+38     	; 0x23b8 <OLED_pos+0x32>
		//Save the column we are moving to
		col = column*FONTWIDTH;
    2392:	8c 2f       	mov	r24, r28
    2394:	88 0f       	add	r24, r24
    2396:	88 0f       	add	r24, r24
    2398:	88 0f       	add	r24, r24
    239a:	80 93 3c 04 	sts	0x043C, r24	; 0x80043c <col>
		//Set lower column start address
		//*OLED_cmd = 0x00 + (column*(FONTWIDTH)<<4);
		//Set higher column start address
		*OLED_cmd = 0X0F & col;
    239e:	e0 91 27 01 	lds	r30, 0x0127	; 0x800127 <OLED_cmd>
    23a2:	f0 91 28 01 	lds	r31, 0x0128	; 0x800128 <OLED_cmd+0x1>
    23a6:	8f 70       	andi	r24, 0x0F	; 15
    23a8:	80 83       	st	Z, r24
		*OLED_cmd = 0x10 | (column*(FONTWIDTH)>>4);
    23aa:	e0 91 27 01 	lds	r30, 0x0127	; 0x800127 <OLED_cmd>
    23ae:	f0 91 28 01 	lds	r31, 0x0128	; 0x800128 <OLED_cmd+0x1>
    23b2:	c0 62       	ori	r28, 0x20	; 32
    23b4:	c6 95       	lsr	r28
    23b6:	c0 83       	st	Z, r28
	}
	
	return 0;
}
    23b8:	80 e0       	ldi	r24, 0x00	; 0
    23ba:	90 e0       	ldi	r25, 0x00	; 0
    23bc:	cf 91       	pop	r28
    23be:	08 95       	ret

000023c0 <OLED_clear_line>:


//function that clears a line
int OLED_clear_line(uint8_t line) {
	OLED_goto_line(line);
    23c0:	0e 94 a6 11 	call	0x234c	; 0x234c <OLED_goto_line>
    23c4:	80 e8       	ldi	r24, 0x80	; 128
    23c6:	90 e0       	ldi	r25, 0x00	; 0
	
	//Clear the page
	for (int i = 0; i < 128; i++) {
		*OLED_data=0x00;
    23c8:	e0 91 25 01 	lds	r30, 0x0125	; 0x800125 <OLED_data>
    23cc:	f0 91 26 01 	lds	r31, 0x0126	; 0x800126 <OLED_data+0x1>
    23d0:	10 82       	st	Z, r1
    23d2:	01 97       	sbiw	r24, 0x01	; 1
//function that clears a line
int OLED_clear_line(uint8_t line) {
	OLED_goto_line(line);
	
	//Clear the page
	for (int i = 0; i < 128; i++) {
    23d4:	c9 f7       	brne	.-14     	; 0x23c8 <OLED_clear_line+0x8>
		*OLED_data=0x00;
	}
	
	OLED_home();
    23d6:	0e 94 71 11 	call	0x22e2	; 0x22e2 <OLED_home>
	
	return 0;
}
    23da:	80 e0       	ldi	r24, 0x00	; 0
    23dc:	90 e0       	ldi	r25, 0x00	; 0
    23de:	08 95       	ret

000023e0 <OLED_clear>:

//function that clears everything that is on the OLED
int OLED_clear(void) {
    23e0:	cf 93       	push	r28
    23e2:	c0 e0       	ldi	r28, 0x00	; 0
	//Clear every page
	for (int k = 0; k < 8; k++) {
		OLED_clear_line(k);
    23e4:	8c 2f       	mov	r24, r28
    23e6:	0e 94 e0 11 	call	0x23c0	; 0x23c0 <OLED_clear_line>
    23ea:	cf 5f       	subi	r28, 0xFF	; 255
}

//function that clears everything that is on the OLED
int OLED_clear(void) {
	//Clear every page
	for (int k = 0; k < 8; k++) {
    23ec:	c8 30       	cpi	r28, 0x08	; 8
    23ee:	d1 f7       	brne	.-12     	; 0x23e4 <OLED_clear+0x4>
		OLED_clear_line(k);
	}
	
	return 0;
}
    23f0:	80 e0       	ldi	r24, 0x00	; 0
    23f2:	90 e0       	ldi	r25, 0x00	; 0
    23f4:	cf 91       	pop	r28
    23f6:	08 95       	ret

000023f8 <OLED_init>:
extern menynummer;

//function to set up the OLED
int OLED_init(void) {
	//Enable the external memory interface/4 bits address
	MCUCR |= (1<<SRE);
    23f8:	85 b7       	in	r24, 0x35	; 53
    23fa:	80 68       	ori	r24, 0x80	; 128
    23fc:	85 bf       	out	0x35, r24	; 53
	SFIOR |= (1<<XMM2);
    23fe:	80 b7       	in	r24, 0x30	; 48
    2400:	80 62       	ori	r24, 0x20	; 32
    2402:	80 bf       	out	0x30, r24	; 48

	//Setup the OLED display
	
	//display off
	*OLED_cmd = 0xAE;
    2404:	e0 91 27 01 	lds	r30, 0x0127	; 0x800127 <OLED_cmd>
    2408:	f0 91 28 01 	lds	r31, 0x0128	; 0x800128 <OLED_cmd+0x1>
    240c:	8e ea       	ldi	r24, 0xAE	; 174
    240e:	80 83       	st	Z, r24
	//segment remap
	*OLED_cmd = 0xA1;
    2410:	e0 91 27 01 	lds	r30, 0x0127	; 0x800127 <OLED_cmd>
    2414:	f0 91 28 01 	lds	r31, 0x0128	; 0x800128 <OLED_cmd+0x1>
    2418:	81 ea       	ldi	r24, 0xA1	; 161
    241a:	80 83       	st	Z, r24
	
	//common pads hardware: alternative
	*OLED_cmd = 0xDA;
    241c:	e0 91 27 01 	lds	r30, 0x0127	; 0x800127 <OLED_cmd>
    2420:	f0 91 28 01 	lds	r31, 0x0128	; 0x800128 <OLED_cmd+0x1>
    2424:	8a ed       	ldi	r24, 0xDA	; 218
    2426:	80 83       	st	Z, r24
	*OLED_cmd = 0x12;
    2428:	e0 91 27 01 	lds	r30, 0x0127	; 0x800127 <OLED_cmd>
    242c:	f0 91 28 01 	lds	r31, 0x0128	; 0x800128 <OLED_cmd+0x1>
    2430:	82 e1       	ldi	r24, 0x12	; 18
    2432:	80 83       	st	Z, r24
	
	//common output scan direction:com63~com0
	*OLED_cmd = 0xC8;
    2434:	e0 91 27 01 	lds	r30, 0x0127	; 0x800127 <OLED_cmd>
    2438:	f0 91 28 01 	lds	r31, 0x0128	; 0x800128 <OLED_cmd+0x1>
    243c:	88 ec       	ldi	r24, 0xC8	; 200
    243e:	80 83       	st	Z, r24

	//multiplex ration mode:63
	*OLED_cmd = 0xA8;
    2440:	e0 91 27 01 	lds	r30, 0x0127	; 0x800127 <OLED_cmd>
    2444:	f0 91 28 01 	lds	r31, 0x0128	; 0x800128 <OLED_cmd+0x1>
    2448:	88 ea       	ldi	r24, 0xA8	; 168
    244a:	80 83       	st	Z, r24
	*OLED_cmd = 0x3F;
    244c:	e0 91 27 01 	lds	r30, 0x0127	; 0x800127 <OLED_cmd>
    2450:	f0 91 28 01 	lds	r31, 0x0128	; 0x800128 <OLED_cmd+0x1>
    2454:	8f e3       	ldi	r24, 0x3F	; 63
    2456:	80 83       	st	Z, r24

	//display divide ratio/osc. freq. mode
	*OLED_cmd = 0xD5;
    2458:	e0 91 27 01 	lds	r30, 0x0127	; 0x800127 <OLED_cmd>
    245c:	f0 91 28 01 	lds	r31, 0x0128	; 0x800128 <OLED_cmd+0x1>
    2460:	85 ed       	ldi	r24, 0xD5	; 213
    2462:	80 83       	st	Z, r24
	*OLED_cmd = 0x80;
    2464:	e0 91 27 01 	lds	r30, 0x0127	; 0x800127 <OLED_cmd>
    2468:	f0 91 28 01 	lds	r31, 0x0128	; 0x800128 <OLED_cmd+0x1>
    246c:	80 e8       	ldi	r24, 0x80	; 128
    246e:	80 83       	st	Z, r24

	//contrast control
	*OLED_cmd = 0x81;
    2470:	e0 91 27 01 	lds	r30, 0x0127	; 0x800127 <OLED_cmd>
    2474:	f0 91 28 01 	lds	r31, 0x0128	; 0x800128 <OLED_cmd+0x1>
    2478:	81 e8       	ldi	r24, 0x81	; 129
    247a:	80 83       	st	Z, r24
	*OLED_cmd = 0x50;
    247c:	e0 91 27 01 	lds	r30, 0x0127	; 0x800127 <OLED_cmd>
    2480:	f0 91 28 01 	lds	r31, 0x0128	; 0x800128 <OLED_cmd+0x1>
    2484:	80 e5       	ldi	r24, 0x50	; 80
    2486:	80 83       	st	Z, r24

	//set pre-charge period
	*OLED_cmd = 0xD9;
    2488:	e0 91 27 01 	lds	r30, 0x0127	; 0x800127 <OLED_cmd>
    248c:	f0 91 28 01 	lds	r31, 0x0128	; 0x800128 <OLED_cmd+0x1>
    2490:	89 ed       	ldi	r24, 0xD9	; 217
    2492:	80 83       	st	Z, r24
	*OLED_cmd = 0x21;
    2494:	e0 91 27 01 	lds	r30, 0x0127	; 0x800127 <OLED_cmd>
    2498:	f0 91 28 01 	lds	r31, 0x0128	; 0x800128 <OLED_cmd+0x1>
    249c:	81 e2       	ldi	r24, 0x21	; 33
    249e:	80 83       	st	Z, r24

	//set Memory Addressing Mode
	*OLED_cmd = 0x20;
    24a0:	e0 91 27 01 	lds	r30, 0x0127	; 0x800127 <OLED_cmd>
    24a4:	f0 91 28 01 	lds	r31, 0x0128	; 0x800128 <OLED_cmd+0x1>
    24a8:	80 e2       	ldi	r24, 0x20	; 32
    24aa:	80 83       	st	Z, r24
	*OLED_cmd = 0x02;
    24ac:	e0 91 27 01 	lds	r30, 0x0127	; 0x800127 <OLED_cmd>
    24b0:	f0 91 28 01 	lds	r31, 0x0128	; 0x800128 <OLED_cmd+0x1>
    24b4:	82 e0       	ldi	r24, 0x02	; 2
    24b6:	80 83       	st	Z, r24

	//VCOM deselect level mode
	*OLED_cmd = 0xDB;
    24b8:	e0 91 27 01 	lds	r30, 0x0127	; 0x800127 <OLED_cmd>
    24bc:	f0 91 28 01 	lds	r31, 0x0128	; 0x800128 <OLED_cmd+0x1>
    24c0:	8b ed       	ldi	r24, 0xDB	; 219
    24c2:	80 83       	st	Z, r24
	*OLED_cmd = 0x30;
    24c4:	e0 91 27 01 	lds	r30, 0x0127	; 0x800127 <OLED_cmd>
    24c8:	f0 91 28 01 	lds	r31, 0x0128	; 0x800128 <OLED_cmd+0x1>
    24cc:	80 e3       	ldi	r24, 0x30	; 48
    24ce:	80 83       	st	Z, r24

	//master configuration
	*OLED_cmd = 0xAD;
    24d0:	e0 91 27 01 	lds	r30, 0x0127	; 0x800127 <OLED_cmd>
    24d4:	f0 91 28 01 	lds	r31, 0x0128	; 0x800128 <OLED_cmd+0x1>
    24d8:	8d ea       	ldi	r24, 0xAD	; 173
    24da:	80 83       	st	Z, r24
	*OLED_cmd = 0x00;
    24dc:	e0 91 27 01 	lds	r30, 0x0127	; 0x800127 <OLED_cmd>
    24e0:	f0 91 28 01 	lds	r31, 0x0128	; 0x800128 <OLED_cmd+0x1>
    24e4:	10 82       	st	Z, r1

	//out follows RAM content
	*OLED_cmd = 0xA4;
    24e6:	e0 91 27 01 	lds	r30, 0x0127	; 0x800127 <OLED_cmd>
    24ea:	f0 91 28 01 	lds	r31, 0x0128	; 0x800128 <OLED_cmd+0x1>
    24ee:	84 ea       	ldi	r24, 0xA4	; 164
    24f0:	80 83       	st	Z, r24

	//set normal display
	*OLED_cmd = 0xA6;
    24f2:	e0 91 27 01 	lds	r30, 0x0127	; 0x800127 <OLED_cmd>
    24f6:	f0 91 28 01 	lds	r31, 0x0128	; 0x800128 <OLED_cmd+0x1>
    24fa:	86 ea       	ldi	r24, 0xA6	; 166
    24fc:	80 83       	st	Z, r24
	//display on
	*OLED_cmd = 0xAF;
    24fe:	e0 91 27 01 	lds	r30, 0x0127	; 0x800127 <OLED_cmd>
    2502:	f0 91 28 01 	lds	r31, 0x0128	; 0x800128 <OLED_cmd+0x1>
    2506:	8f ea       	ldi	r24, 0xAF	; 175
    2508:	80 83       	st	Z, r24
	
	//Set page start address
	*OLED_cmd = 0xB0;
    250a:	e0 91 27 01 	lds	r30, 0x0127	; 0x800127 <OLED_cmd>
    250e:	f0 91 28 01 	lds	r31, 0x0128	; 0x800128 <OLED_cmd+0x1>
    2512:	80 eb       	ldi	r24, 0xB0	; 176
    2514:	80 83       	st	Z, r24
	//Set lower column start address
	*OLED_cmd = 0x00;
    2516:	e0 91 27 01 	lds	r30, 0x0127	; 0x800127 <OLED_cmd>
    251a:	f0 91 28 01 	lds	r31, 0x0128	; 0x800128 <OLED_cmd+0x1>
    251e:	10 82       	st	Z, r1
	//Set higher column start address
	*OLED_cmd = 0x10;
    2520:	e0 91 27 01 	lds	r30, 0x0127	; 0x800127 <OLED_cmd>
    2524:	f0 91 28 01 	lds	r31, 0x0128	; 0x800128 <OLED_cmd+0x1>
    2528:	80 e1       	ldi	r24, 0x10	; 16
    252a:	80 83       	st	Z, r24
	
	//Clear the display
	OLED_clear();
    252c:	0e 94 f0 11 	call	0x23e0	; 0x23e0 <OLED_clear>
	OLED_home();
    2530:	0e 94 71 11 	call	0x22e2	; 0x22e2 <OLED_home>

	return 0;
}
    2534:	80 e0       	ldi	r24, 0x00	; 0
    2536:	90 e0       	ldi	r25, 0x00	; 0
    2538:	08 95       	ret

0000253a <OLED_print_char>:
	
	return 0;
}

// function that lets us print characters defined by the defined
int OLED_print_char(char c) {
    253a:	28 2f       	mov	r18, r24
    253c:	30 e0       	ldi	r19, 0x00	; 0
    253e:	f9 01       	movw	r30, r18
    2540:	ee 0f       	add	r30, r30
    2542:	ff 1f       	adc	r31, r31
    2544:	ee 0f       	add	r30, r30
    2546:	ff 1f       	adc	r31, r31
    2548:	ee 0f       	add	r30, r30
    254a:	ff 1f       	adc	r31, r31
    254c:	e6 55       	subi	r30, 0x56	; 86
    254e:	f0 40       	sbci	r31, 0x00	; 0
    2550:	22 0f       	add	r18, r18
    2552:	33 1f       	adc	r19, r19
    2554:	22 0f       	add	r18, r18
    2556:	33 1f       	adc	r19, r19
    2558:	22 0f       	add	r18, r18
    255a:	33 1f       	adc	r19, r19
    255c:	2e 54       	subi	r18, 0x4E	; 78
    255e:	30 40       	sbci	r19, 0x00	; 0
	//Write the complete character
	for (int i = 0; i < FONTWIDTH; i++) {
		*OLED_data = pgm_read_byte(&font[c-' '][i]);
    2560:	a0 91 25 01 	lds	r26, 0x0125	; 0x800125 <OLED_data>
    2564:	b0 91 26 01 	lds	r27, 0x0126	; 0x800126 <OLED_data+0x1>
    2568:	94 91       	lpm	r25, Z
    256a:	9c 93       	st	X, r25
    256c:	31 96       	adiw	r30, 0x01	; 1
}

// function that lets us print characters defined by the defined
int OLED_print_char(char c) {
	//Write the complete character
	for (int i = 0; i < FONTWIDTH; i++) {
    256e:	e2 17       	cp	r30, r18
    2570:	f3 07       	cpc	r31, r19
    2572:	b1 f7       	brne	.-20     	; 0x2560 <OLED_print_char+0x26>
		*OLED_data = pgm_read_byte(&font[c-' '][i]);
	}
	
	return 0;
}
    2574:	80 e0       	ldi	r24, 0x00	; 0
    2576:	90 e0       	ldi	r25, 0x00	; 0
    2578:	08 95       	ret

0000257a <OLED_print>:


//writes a complete string, with the use of the print char function
int OLED_print(char *data) {
    257a:	cf 93       	push	r28
    257c:	df 93       	push	r29
    257e:	ec 01       	movw	r28, r24
	int i = 0;
	
	//Write the complete string
	while(data[i] != '\0'){
    2580:	88 81       	ld	r24, Y
    2582:	88 23       	and	r24, r24
    2584:	31 f0       	breq	.+12     	; 0x2592 <OLED_print+0x18>
    2586:	21 96       	adiw	r28, 0x01	; 1
		OLED_print_char(data[i]);
    2588:	0e 94 9d 12 	call	0x253a	; 0x253a <OLED_print_char>
//writes a complete string, with the use of the print char function
int OLED_print(char *data) {
	int i = 0;
	
	//Write the complete string
	while(data[i] != '\0'){
    258c:	89 91       	ld	r24, Y+
    258e:	81 11       	cpse	r24, r1
    2590:	fb cf       	rjmp	.-10     	; 0x2588 <OLED_print+0xe>
		OLED_print_char(data[i]);
		i++;
	}
	
	return 0;
}
    2592:	80 e0       	ldi	r24, 0x00	; 0
    2594:	90 e0       	ldi	r25, 0x00	; 0
    2596:	df 91       	pop	r29
    2598:	cf 91       	pop	r28
    259a:	08 95       	ret

0000259c <OLED_nameprompt>:

int OLED_nameprompt(void){			// Prompt the user for their name (four letters) after reaching a score larger then third highest score
    259c:	6f 92       	push	r6
    259e:	7f 92       	push	r7
    25a0:	8f 92       	push	r8
    25a2:	9f 92       	push	r9
    25a4:	af 92       	push	r10
    25a6:	bf 92       	push	r11
    25a8:	cf 92       	push	r12
    25aa:	df 92       	push	r13
    25ac:	ef 92       	push	r14
    25ae:	ff 92       	push	r15
    25b0:	0f 93       	push	r16
    25b2:	1f 93       	push	r17
    25b4:	cf 93       	push	r28
    25b6:	df 93       	push	r29
    25b8:	cd b7       	in	r28, 0x3d	; 61
    25ba:	de b7       	in	r29, 0x3e	; 62
    25bc:	ea 97       	sbiw	r28, 0x3a	; 58
    25be:	0f b6       	in	r0, 0x3f	; 63
    25c0:	f8 94       	cli
    25c2:	de bf       	out	0x3e, r29	; 62
    25c4:	0f be       	out	0x3f, r0	; 63
    25c6:	cd bf       	out	0x3d, r28	; 61
	OLED_clear();
    25c8:	0e 94 f0 11 	call	0x23e0	; 0x23e0 <OLED_clear>
	OLED_pos(2,1);
    25cc:	61 e0       	ldi	r22, 0x01	; 1
    25ce:	82 e0       	ldi	r24, 0x02	; 2
    25d0:	0e 94 c3 11 	call	0x2386	; 0x2386 <OLED_pos>
	OLED_print("New Highscore!");
    25d4:	86 e4       	ldi	r24, 0x46	; 70
    25d6:	93 e0       	ldi	r25, 0x03	; 3
    25d8:	0e 94 bd 12 	call	0x257a	; 0x257a <OLED_print>
	OLED_pos(3,3);
    25dc:	63 e0       	ldi	r22, 0x03	; 3
    25de:	83 e0       	ldi	r24, 0x03	; 3
    25e0:	0e 94 c3 11 	call	0x2386	; 0x2386 <OLED_pos>
	OLED_print("Type name:");
    25e4:	85 e5       	ldi	r24, 0x55	; 85
    25e6:	93 e0       	ldi	r25, 0x03	; 3
    25e8:	0e 94 bd 12 	call	0x257a	; 0x257a <OLED_print>
	OLED_pos(6,6);
    25ec:	66 e0       	ldi	r22, 0x06	; 6
    25ee:	86 e0       	ldi	r24, 0x06	; 6
    25f0:	0e 94 c3 11 	call	0x2386	; 0x2386 <OLED_pos>
	OLED_print("^^^^");
    25f4:	80 e6       	ldi	r24, 0x60	; 96
    25f6:	93 e0       	ldi	r25, 0x03	; 3
    25f8:	0e 94 bd 12 	call	0x257a	; 0x257a <OLED_print>
	char* characterstring[25] = {"A","B","C","D","E","F","G","H","I","J","K","L","M","N","O","P","Q","R","S","T","U","V","W","X","Y","Z"};
    25fc:	82 e3       	ldi	r24, 0x32	; 50
    25fe:	e9 e2       	ldi	r30, 0x29	; 41
    2600:	f1 e0       	ldi	r31, 0x01	; 1
    2602:	de 01       	movw	r26, r28
    2604:	11 96       	adiw	r26, 0x01	; 1
    2606:	01 90       	ld	r0, Z+
    2608:	0d 92       	st	X+, r0
    260a:	8a 95       	dec	r24
    260c:	e1 f7       	brne	.-8      	; 0x2606 <OLED_nameprompt+0x6a>
	char* endstr[4] = {".", ".", ".", "."};
    260e:	88 e0       	ldi	r24, 0x08	; 8
    2610:	eb e5       	ldi	r30, 0x5B	; 91
    2612:	f1 e0       	ldi	r31, 0x01	; 1
    2614:	de 01       	movw	r26, r28
    2616:	d3 96       	adiw	r26, 0x33	; 51
    2618:	01 90       	ld	r0, Z+
    261a:	0d 92       	st	X+, r0
    261c:	8a 95       	dec	r24
    261e:	e1 f7       	brne	.-8      	; 0x2618 <OLED_nameprompt+0x7c>
    2620:	4e 01       	movw	r8, r28
    2622:	23 e3       	ldi	r18, 0x33	; 51
    2624:	82 0e       	add	r8, r18
    2626:	91 1c       	adc	r9, r1
    2628:	64 01       	movw	r12, r8
    262a:	0f 2e       	mov	r0, r31
    262c:	f6 e0       	ldi	r31, 0x06	; 6
    262e:	6f 2e       	mov	r6, r31
    2630:	f0 2d       	mov	r31, r0
	int positions[4];
	int stopflag = 0;
	joy_position joy_pos;
	slider_position slider_pos;
	for (int i = 0; i < 4; i++){					// Repeat four times, once for each character in the name
    2632:	a1 2c       	mov	r10, r1
    2634:	b1 2c       	mov	r11, r1
    2636:	88 c0       	rjmp	.+272    	; 0x2748 <OLED_nameprompt+0x1ac>
		for (int j = 0; j < 30;){					// Search "characterstring" by moving the joystick up and down, incrementing the position in the string and printing 
			OLED_clear_line(5);						// the corresponding letter on the screen
    2638:	85 e0       	ldi	r24, 0x05	; 5
    263a:	0e 94 e0 11 	call	0x23c0	; 0x23c0 <OLED_clear_line>
			for (int k = 0; k < i; k++){			// Print the previously chosen letters in front of the current letter we are choosing 
    263e:	1a 14       	cp	r1, r10
    2640:	1b 04       	cpc	r1, r11
    2642:	9c f4       	brge	.+38     	; 0x266a <OLED_nameprompt+0xce>
    2644:	84 01       	movw	r16, r8
    2646:	0f 2e       	mov	r0, r31
    2648:	f6 e0       	ldi	r31, 0x06	; 6
    264a:	7f 2e       	mov	r7, r31
    264c:	f0 2d       	mov	r31, r0
				OLED_pos(5,6+k);
    264e:	67 2d       	mov	r22, r7
    2650:	85 e0       	ldi	r24, 0x05	; 5
    2652:	0e 94 c3 11 	call	0x2386	; 0x2386 <OLED_pos>
				OLED_print(endstr[k]);
    2656:	f8 01       	movw	r30, r16
    2658:	81 91       	ld	r24, Z+
    265a:	91 91       	ld	r25, Z+
    265c:	8f 01       	movw	r16, r30
    265e:	0e 94 bd 12 	call	0x257a	; 0x257a <OLED_print>
    2662:	73 94       	inc	r7
	joy_position joy_pos;
	slider_position slider_pos;
	for (int i = 0; i < 4; i++){					// Repeat four times, once for each character in the name
		for (int j = 0; j < 30;){					// Search "characterstring" by moving the joystick up and down, incrementing the position in the string and printing 
			OLED_clear_line(5);						// the corresponding letter on the screen
			for (int k = 0; k < i; k++){			// Print the previously chosen letters in front of the current letter we are choosing 
    2664:	0c 15       	cp	r16, r12
    2666:	1d 05       	cpc	r17, r13
    2668:	91 f7       	brne	.-28     	; 0x264e <OLED_nameprompt+0xb2>
				OLED_pos(5,6+k);
				OLED_print(endstr[k]);
			}
			OLED_pos(5,6+i);
    266a:	66 2d       	mov	r22, r6
    266c:	85 e0       	ldi	r24, 0x05	; 5
    266e:	0e 94 c3 11 	call	0x2386	; 0x2386 <OLED_pos>
			OLED_print(characterstring[j]);
    2672:	f7 01       	movw	r30, r14
    2674:	ee 0f       	add	r30, r30
    2676:	ff 1f       	adc	r31, r31
    2678:	21 e0       	ldi	r18, 0x01	; 1
    267a:	30 e0       	ldi	r19, 0x00	; 0
    267c:	2c 0f       	add	r18, r28
    267e:	3d 1f       	adc	r19, r29
    2680:	e2 0f       	add	r30, r18
    2682:	f3 1f       	adc	r31, r19
    2684:	80 81       	ld	r24, Z
    2686:	91 81       	ldd	r25, Z+1	; 0x01
    2688:	0e 94 bd 12 	call	0x257a	; 0x257a <OLED_print>
			joy_pos = JOY_getDirection();
    268c:	0e 94 b6 03 	call	0x76c	; 0x76c <JOY_getDirection>
    2690:	3f ed       	ldi	r19, 0xDF	; 223
    2692:	42 e2       	ldi	r20, 0x22	; 34
    2694:	e2 e0       	ldi	r30, 0x02	; 2
    2696:	31 50       	subi	r19, 0x01	; 1
    2698:	40 40       	sbci	r20, 0x00	; 0
    269a:	e0 40       	sbci	r30, 0x00	; 0
    269c:	e1 f7       	brne	.-8      	; 0x2696 <OLED_nameprompt+0xfa>
    269e:	00 c0       	rjmp	.+0      	; 0x26a0 <OLED_nameprompt+0x104>
    26a0:	00 00       	nop
			_delay_ms(700);
			if (joy_pos.dir == 1){					// Increment array when moving the joystick up
    26a2:	81 30       	cpi	r24, 0x01	; 1
    26a4:	21 f4       	brne	.+8      	; 0x26ae <OLED_nameprompt+0x112>
				j = j + 1;
    26a6:	ff ef       	ldi	r31, 0xFF	; 255
    26a8:	ef 1a       	sub	r14, r31
    26aa:	ff 0a       	sbc	r15, r31
    26ac:	05 c0       	rjmp	.+10     	; 0x26b8 <OLED_nameprompt+0x11c>
			}
			else if (joy_pos.dir == 2){				// Decrement array when moving the joystick down 
    26ae:	82 30       	cpi	r24, 0x02	; 2
    26b0:	19 f4       	brne	.+6      	; 0x26b8 <OLED_nameprompt+0x11c>
				j = j - 1;
    26b2:	21 e0       	ldi	r18, 0x01	; 1
    26b4:	e2 1a       	sub	r14, r18
    26b6:	f1 08       	sbc	r15, r1
			}
			if (j > 25){							// Make the array cyclic. Moving further then the last letter we return to the first letter.
    26b8:	3a e1       	ldi	r19, 0x1A	; 26
    26ba:	e3 16       	cp	r14, r19
    26bc:	f1 04       	cpc	r15, r1
    26be:	0c f0       	brlt	.+2      	; 0x26c2 <OLED_nameprompt+0x126>
    26c0:	69 c0       	rjmp	.+210    	; 0x2794 <OLED_nameprompt+0x1f8>
				j = 0;
			}
			else if (j < 0){						// Moving lower then the first letter we move to the last letter in the array. 
    26c2:	ff 20       	and	r15, r15
    26c4:	0c f4       	brge	.+2      	; 0x26c8 <OLED_nameprompt+0x12c>
    26c6:	69 c0       	rjmp	.+210    	; 0x279a <OLED_nameprompt+0x1fe>
				j = 25;
			}
			else if (joy_pos.sidedir == 1){			// "Select" character by moving our joystick to the right, breaking the for-loop and move to choosing the next character
    26c8:	91 30       	cpi	r25, 0x01	; 1
    26ca:	91 f4       	brne	.+36     	; 0x26f0 <OLED_nameprompt+0x154>
				if (i < 4){
    26cc:	44 e0       	ldi	r20, 0x04	; 4
    26ce:	a4 16       	cp	r10, r20
    26d0:	b1 04       	cpc	r11, r1
    26d2:	84 f5       	brge	.+96     	; 0x2734 <OLED_nameprompt+0x198>
				positions[i] = j;
				endstr[i] = characterstring[positions[i]];
    26d4:	ee 0c       	add	r14, r14
    26d6:	ff 1c       	adc	r15, r15
    26d8:	e1 e0       	ldi	r30, 0x01	; 1
    26da:	f0 e0       	ldi	r31, 0x00	; 0
    26dc:	ec 0f       	add	r30, r28
    26de:	fd 1f       	adc	r31, r29
    26e0:	ee 0d       	add	r30, r14
    26e2:	ff 1d       	adc	r31, r15
    26e4:	80 81       	ld	r24, Z
    26e6:	91 81       	ldd	r25, Z+1	; 0x01
    26e8:	f6 01       	movw	r30, r12
    26ea:	91 83       	std	Z+1, r25	; 0x01
    26ec:	80 83       	st	Z, r24
				break;
    26ee:	22 c0       	rjmp	.+68     	; 0x2734 <OLED_nameprompt+0x198>
				}
				else{break;}
			}
			else if (joy_button(1) == 0){			// Exit the function when done selecting name by pressing the button. 
    26f0:	81 e0       	ldi	r24, 0x01	; 1
    26f2:	90 e0       	ldi	r25, 0x00	; 0
    26f4:	0e 94 3d 03 	call	0x67a	; 0x67a <joy_button>
    26f8:	89 2b       	or	r24, r25
    26fa:	b9 f4       	brne	.+46     	; 0x272a <OLED_nameprompt+0x18e>
				stopflag = 1;
				positions[i] = j;
				endstr[i] = characterstring[positions[i]];
    26fc:	aa 0c       	add	r10, r10
    26fe:	bb 1c       	adc	r11, r11
    2700:	a1 e0       	ldi	r26, 0x01	; 1
    2702:	b0 e0       	ldi	r27, 0x00	; 0
    2704:	ac 0f       	add	r26, r28
    2706:	bd 1f       	adc	r27, r29
    2708:	aa 0d       	add	r26, r10
    270a:	bb 1d       	adc	r27, r11
    270c:	ee 0c       	add	r14, r14
    270e:	ff 1c       	adc	r15, r15
    2710:	e1 e0       	ldi	r30, 0x01	; 1
    2712:	f0 e0       	ldi	r31, 0x00	; 0
    2714:	ec 0f       	add	r30, r28
    2716:	fd 1f       	adc	r31, r29
    2718:	ee 0d       	add	r30, r14
    271a:	ff 1d       	adc	r31, r15
    271c:	80 81       	ld	r24, Z
    271e:	91 81       	ldd	r25, Z+1	; 0x01
    2720:	d3 96       	adiw	r26, 0x33	; 51
    2722:	9c 93       	st	X, r25
    2724:	8e 93       	st	-X, r24
    2726:	d2 97       	sbiw	r26, 0x32	; 50
    2728:	12 c0       	rjmp	.+36     	; 0x274e <OLED_nameprompt+0x1b2>
	int positions[4];
	int stopflag = 0;
	joy_position joy_pos;
	slider_position slider_pos;
	for (int i = 0; i < 4; i++){					// Repeat four times, once for each character in the name
		for (int j = 0; j < 30;){					// Search "characterstring" by moving the joystick up and down, incrementing the position in the string and printing 
    272a:	fe e1       	ldi	r31, 0x1E	; 30
    272c:	ef 16       	cp	r14, r31
    272e:	f1 04       	cpc	r15, r1
    2730:	0c f4       	brge	.+2      	; 0x2734 <OLED_nameprompt+0x198>
    2732:	82 cf       	rjmp	.-252    	; 0x2638 <OLED_nameprompt+0x9c>
	char* endstr[4] = {".", ".", ".", "."};
	int positions[4];
	int stopflag = 0;
	joy_position joy_pos;
	slider_position slider_pos;
	for (int i = 0; i < 4; i++){					// Repeat four times, once for each character in the name
    2734:	2f ef       	ldi	r18, 0xFF	; 255
    2736:	a2 1a       	sub	r10, r18
    2738:	b2 0a       	sbc	r11, r18
    273a:	32 e0       	ldi	r19, 0x02	; 2
    273c:	c3 0e       	add	r12, r19
    273e:	d1 1c       	adc	r13, r1
    2740:	63 94       	inc	r6
    2742:	4a e0       	ldi	r20, 0x0A	; 10
    2744:	64 16       	cp	r6, r20
    2746:	19 f0       	breq	.+6      	; 0x274e <OLED_nameprompt+0x1b2>
	}
	
	return 0;
}

int OLED_nameprompt(void){			// Prompt the user for their name (four letters) after reaching a score larger then third highest score
    2748:	e1 2c       	mov	r14, r1
    274a:	f1 2c       	mov	r15, r1
    274c:	75 cf       	rjmp	.-278    	; 0x2638 <OLED_nameprompt+0x9c>
		}
		if (stopflag == 1){
			break;
		}
	}
	OLED_clear();
    274e:	0e 94 f0 11 	call	0x23e0	; 0x23e0 <OLED_clear>
	OLED_pos(3,2);
    2752:	62 e0       	ldi	r22, 0x02	; 2
    2754:	83 e0       	ldi	r24, 0x03	; 3
    2756:	0e 94 c3 11 	call	0x2386	; 0x2386 <OLED_pos>
	OLED_print("Well played,");
    275a:	85 e6       	ldi	r24, 0x65	; 101
    275c:	93 e0       	ldi	r25, 0x03	; 3
    275e:	0e 94 bd 12 	call	0x257a	; 0x257a <OLED_print>
	OLED_pos(6,4);
    2762:	64 e0       	ldi	r22, 0x04	; 4
    2764:	86 e0       	ldi	r24, 0x06	; 6
    2766:	0e 94 c3 11 	call	0x2386	; 0x2386 <OLED_pos>
	OLED_print("~");
    276a:	84 e7       	ldi	r24, 0x74	; 116
    276c:	93 e0       	ldi	r25, 0x03	; 3
    276e:	0e 94 bd 12 	call	0x257a	; 0x257a <OLED_print>
	OLED_pos(6,6);
    2772:	66 e0       	ldi	r22, 0x06	; 6
    2774:	86 e0       	ldi	r24, 0x06	; 6
    2776:	0e 94 c3 11 	call	0x2386	; 0x2386 <OLED_pos>
    277a:	8e 01       	movw	r16, r28
    277c:	05 5c       	subi	r16, 0xC5	; 197
    277e:	1f 4f       	sbci	r17, 0xFF	; 255
	for (int i = 0; i < 4; i++){
		OLED_print(endstr[i]);
    2780:	f4 01       	movw	r30, r8
    2782:	81 91       	ld	r24, Z+
    2784:	91 91       	ld	r25, Z+
    2786:	4f 01       	movw	r8, r30
    2788:	0e 94 bd 12 	call	0x257a	; 0x257a <OLED_print>
	OLED_pos(3,2);
	OLED_print("Well played,");
	OLED_pos(6,4);
	OLED_print("~");
	OLED_pos(6,6);
	for (int i = 0; i < 4; i++){
    278c:	08 15       	cp	r16, r8
    278e:	19 05       	cpc	r17, r9
    2790:	b9 f7       	brne	.-18     	; 0x2780 <OLED_nameprompt+0x1e4>
    2792:	09 c0       	rjmp	.+18     	; 0x27a6 <OLED_nameprompt+0x20a>
			}
			else if (joy_pos.dir == 2){				// Decrement array when moving the joystick down 
				j = j - 1;
			}
			if (j > 25){							// Make the array cyclic. Moving further then the last letter we return to the first letter.
				j = 0;
    2794:	e1 2c       	mov	r14, r1
    2796:	f1 2c       	mov	r15, r1
    2798:	4f cf       	rjmp	.-354    	; 0x2638 <OLED_nameprompt+0x9c>
			}
			else if (j < 0){						// Moving lower then the first letter we move to the last letter in the array. 
				j = 25;
    279a:	0f 2e       	mov	r0, r31
    279c:	f9 e1       	ldi	r31, 0x19	; 25
    279e:	ef 2e       	mov	r14, r31
    27a0:	f1 2c       	mov	r15, r1
    27a2:	f0 2d       	mov	r31, r0
    27a4:	49 cf       	rjmp	.-366    	; 0x2638 <OLED_nameprompt+0x9c>
	OLED_print("~");
	OLED_pos(6,6);
	for (int i = 0; i < 4; i++){
		OLED_print(endstr[i]);
	}
	OLED_pos(6,10);
    27a6:	6a e0       	ldi	r22, 0x0A	; 10
    27a8:	86 e0       	ldi	r24, 0x06	; 6
    27aa:	0e 94 c3 11 	call	0x2386	; 0x2386 <OLED_pos>
	OLED_print("! ~");
    27ae:	82 e7       	ldi	r24, 0x72	; 114
    27b0:	93 e0       	ldi	r25, 0x03	; 3
    27b2:	0e 94 bd 12 	call	0x257a	; 0x257a <OLED_print>
    27b6:	ff e7       	ldi	r31, 0x7F	; 127
    27b8:	2f e4       	ldi	r18, 0x4F	; 79
    27ba:	32 e1       	ldi	r19, 0x12	; 18
    27bc:	f1 50       	subi	r31, 0x01	; 1
    27be:	20 40       	sbci	r18, 0x00	; 0
    27c0:	30 40       	sbci	r19, 0x00	; 0
    27c2:	e1 f7       	brne	.-8      	; 0x27bc <OLED_nameprompt+0x220>
    27c4:	00 c0       	rjmp	.+0      	; 0x27c6 <OLED_nameprompt+0x22a>
    27c6:	00 00       	nop
	_delay_ms(6000);
	char** string = endstr;
	return string;
}
    27c8:	ce 01       	movw	r24, r28
    27ca:	c3 96       	adiw	r24, 0x33	; 51
    27cc:	ea 96       	adiw	r28, 0x3a	; 58
    27ce:	0f b6       	in	r0, 0x3f	; 63
    27d0:	f8 94       	cli
    27d2:	de bf       	out	0x3e, r29	; 62
    27d4:	0f be       	out	0x3f, r0	; 63
    27d6:	cd bf       	out	0x3d, r28	; 61
    27d8:	df 91       	pop	r29
    27da:	cf 91       	pop	r28
    27dc:	1f 91       	pop	r17
    27de:	0f 91       	pop	r16
    27e0:	ff 90       	pop	r15
    27e2:	ef 90       	pop	r14
    27e4:	df 90       	pop	r13
    27e6:	cf 90       	pop	r12
    27e8:	bf 90       	pop	r11
    27ea:	af 90       	pop	r10
    27ec:	9f 90       	pop	r9
    27ee:	8f 90       	pop	r8
    27f0:	7f 90       	pop	r7
    27f2:	6f 90       	pop	r6
    27f4:	08 95       	ret

000027f6 <OLED_game>:

int OLED_game(int diff){	// Main function for the game
    27f6:	6f 92       	push	r6
    27f8:	7f 92       	push	r7
    27fa:	9f 92       	push	r9
    27fc:	af 92       	push	r10
    27fe:	bf 92       	push	r11
    2800:	cf 92       	push	r12
    2802:	df 92       	push	r13
    2804:	ef 92       	push	r14
    2806:	ff 92       	push	r15
    2808:	0f 93       	push	r16
    280a:	1f 93       	push	r17
    280c:	cf 93       	push	r28
    280e:	df 93       	push	r29
    2810:	cd b7       	in	r28, 0x3d	; 61
    2812:	de b7       	in	r29, 0x3e	; 62
    2814:	2b 97       	sbiw	r28, 0x0b	; 11
    2816:	0f b6       	in	r0, 0x3f	; 63
    2818:	f8 94       	cli
    281a:	de bf       	out	0x3e, r29	; 62
    281c:	0f be       	out	0x3f, r0	; 63
    281e:	cd bf       	out	0x3d, r28	; 61
			OLED_pos(5,3);
			OLED_print("continue!");
		}
		_delay_ms(400);
		if (joy_button(1) == 0){
			can_msg_send.data[2] = joy_button(1);
    2820:	01 e2       	ldi	r16, 0x21	; 33
    2822:	14 e0       	ldi	r17, 0x04	; 4
			CAN_message_send(&can_msg_send);
			gamestep = 2;
    2824:	68 94       	set
    2826:	ee 24       	eor	r14, r14
    2828:	e1 f8       	bld	r14, 1
    282a:	f1 2c       	mov	r15, r1
	extern int score;
	int counter;
	joy_position position;
	slider_position slider_pos;

	while(gamestep == 1){      //Waiting for player to shoot the first time to initiate the game or to continue the game after loosing a health point
    282c:	69 c0       	rjmp	.+210    	; 0x2900 <OLED_game+0x10a>
		position = JOY_getDirection();
    282e:	0e 94 b6 03 	call	0x76c	; 0x76c <JOY_getDirection>
		OLED_clear();
    2832:	0e 94 f0 11 	call	0x23e0	; 0x23e0 <OLED_clear>
		OLED_pos(4,1);
    2836:	61 e0       	ldi	r22, 0x01	; 1
    2838:	84 e0       	ldi	r24, 0x04	; 4
    283a:	0e 94 c3 11 	call	0x2386	; 0x2386 <OLED_pos>
		if (hp == 3){
    283e:	80 91 06 01 	lds	r24, 0x0106	; 0x800106 <hp>
    2842:	90 91 07 01 	lds	r25, 0x0107	; 0x800107 <hp+0x1>
    2846:	83 30       	cpi	r24, 0x03	; 3
    2848:	91 05       	cpc	r25, r1
    284a:	49 f4       	brne	.+18     	; 0x285e <OLED_game+0x68>
			OLED_print("Shoot to start!");
    284c:	86 ea       	ldi	r24, 0xA6	; 166
    284e:	93 e0       	ldi	r25, 0x03	; 3
    2850:	0e 94 bd 12 	call	0x257a	; 0x257a <OLED_print>
			counter = 0;
			score = 0;
    2854:	10 92 3a 04 	sts	0x043A, r1	; 0x80043a <score+0x1>
    2858:	10 92 39 04 	sts	0x0439, r1	; 0x800439 <score>
    285c:	35 c0       	rjmp	.+106    	; 0x28c8 <OLED_game+0xd2>
			hp_lost = 0;
		}
		else if (hp == 0){
    285e:	89 2b       	or	r24, r25
    2860:	d9 f4       	brne	.+54     	; 0x2898 <OLED_game+0xa2>
			gamestep = 0; 
    2862:	10 92 09 01 	sts	0x0109, r1	; 0x800109 <gamestep+0x1>
    2866:	10 92 08 01 	sts	0x0108, r1	; 0x800108 <gamestep>
			menuactive = 1; 
    286a:	81 e0       	ldi	r24, 0x01	; 1
    286c:	90 e0       	ldi	r25, 0x00	; 0
    286e:	90 93 0c 01 	sts	0x010C, r25	; 0x80010c <highscorename3>
    2872:	80 93 0b 01 	sts	0x010B, r24	; 0x80010b <menuactive>
			menynummer = 27; 
    2876:	8b e1       	ldi	r24, 0x1B	; 27
    2878:	90 e0       	ldi	r25, 0x00	; 0
    287a:	90 93 18 04 	sts	0x0418, r25	; 0x800418 <menynummer+0x1>
    287e:	80 93 17 04 	sts	0x0417, r24	; 0x800417 <menynummer>
		}
	}
	while(gamestep == 2){	// Game started. Score-counting active. Will break when a health point is lost, returning to gamestep 1
		slider_pos = JOY_getSliderPosition();
		position = JOY_getDirection();
		can_msg_send.data[0] = position.x;
    2882:	01 e2       	ldi	r16, 0x21	; 33
    2884:	14 e0       	ldi	r17, 0x04	; 4
  		hp_lost = can_msg_receive.data[5];
		if (!test_bit(PINB,PINB0)){
			hp_lost=1;
		}
		_delay_ms(100);
		printf("hp_lost: %d \n \r", hp_lost);
    2886:	0f 2e       	mov	r0, r31
    2888:	fa ed       	ldi	r31, 0xDA	; 218
    288a:	af 2e       	mov	r10, r31
    288c:	f3 e0       	ldi	r31, 0x03	; 3
    288e:	bf 2e       	mov	r11, r31
    2890:	f0 2d       	mov	r31, r0
		}
	}
	while(gamestep == 2){	// Game started. Score-counting active. Will break when a health point is lost, returning to gamestep 1
		slider_pos = JOY_getSliderPosition();
		position = JOY_getDirection();
		can_msg_send.data[0] = position.x;
    2892:	90 2e       	mov	r9, r16
    2894:	c1 2e       	mov	r12, r17
    2896:	c6 c0       	rjmp	.+396    	; 0x2a24 <OLED_game+0x22e>
			menuactive = 1; 
			menynummer = 27; 
			break;
		}
		else{
			OLED_pos(3,0);
    2898:	60 e0       	ldi	r22, 0x00	; 0
    289a:	83 e0       	ldi	r24, 0x03	; 3
    289c:	0e 94 c3 11 	call	0x2386	; 0x2386 <OLED_pos>
			OLED_print("You lost health.");
    28a0:	86 eb       	ldi	r24, 0xB6	; 182
    28a2:	93 e0       	ldi	r25, 0x03	; 3
    28a4:	0e 94 bd 12 	call	0x257a	; 0x257a <OLED_print>
			OLED_pos(4,3);
    28a8:	63 e0       	ldi	r22, 0x03	; 3
    28aa:	84 e0       	ldi	r24, 0x04	; 4
    28ac:	0e 94 c3 11 	call	0x2386	; 0x2386 <OLED_pos>
			OLED_print("Shoot to");
    28b0:	87 ec       	ldi	r24, 0xC7	; 199
    28b2:	93 e0       	ldi	r25, 0x03	; 3
    28b4:	0e 94 bd 12 	call	0x257a	; 0x257a <OLED_print>
			OLED_pos(5,3);
    28b8:	63 e0       	ldi	r22, 0x03	; 3
    28ba:	85 e0       	ldi	r24, 0x05	; 5
    28bc:	0e 94 c3 11 	call	0x2386	; 0x2386 <OLED_pos>
			OLED_print("continue!");
    28c0:	80 ed       	ldi	r24, 0xD0	; 208
    28c2:	93 e0       	ldi	r25, 0x03	; 3
    28c4:	0e 94 bd 12 	call	0x257a	; 0x257a <OLED_print>
    28c8:	2f e7       	ldi	r18, 0x7F	; 127
    28ca:	88 e3       	ldi	r24, 0x38	; 56
    28cc:	91 e0       	ldi	r25, 0x01	; 1
    28ce:	21 50       	subi	r18, 0x01	; 1
    28d0:	80 40       	sbci	r24, 0x00	; 0
    28d2:	90 40       	sbci	r25, 0x00	; 0
    28d4:	e1 f7       	brne	.-8      	; 0x28ce <OLED_game+0xd8>
    28d6:	00 c0       	rjmp	.+0      	; 0x28d8 <OLED_game+0xe2>
    28d8:	00 00       	nop
		}
		_delay_ms(400);
		if (joy_button(1) == 0){
    28da:	81 e0       	ldi	r24, 0x01	; 1
    28dc:	90 e0       	ldi	r25, 0x00	; 0
    28de:	0e 94 3d 03 	call	0x67a	; 0x67a <joy_button>
    28e2:	89 2b       	or	r24, r25
    28e4:	69 f4       	brne	.+26     	; 0x2900 <OLED_game+0x10a>
			can_msg_send.data[2] = joy_button(1);
    28e6:	81 e0       	ldi	r24, 0x01	; 1
    28e8:	90 e0       	ldi	r25, 0x00	; 0
    28ea:	0e 94 3d 03 	call	0x67a	; 0x67a <joy_button>
    28ee:	f8 01       	movw	r30, r16
    28f0:	85 83       	std	Z+5, r24	; 0x05
			CAN_message_send(&can_msg_send);
    28f2:	c8 01       	movw	r24, r16
    28f4:	0e 94 46 02 	call	0x48c	; 0x48c <CAN_message_send>
			gamestep = 2;
    28f8:	f0 92 09 01 	sts	0x0109, r15	; 0x800109 <gamestep+0x1>
    28fc:	e0 92 08 01 	sts	0x0108, r14	; 0x800108 <gamestep>
	extern int score;
	int counter;
	joy_position position;
	slider_position slider_pos;

	while(gamestep == 1){      //Waiting for player to shoot the first time to initiate the game or to continue the game after loosing a health point
    2900:	80 91 08 01 	lds	r24, 0x0108	; 0x800108 <gamestep>
    2904:	90 91 09 01 	lds	r25, 0x0109	; 0x800109 <gamestep+0x1>
    2908:	01 97       	sbiw	r24, 0x01	; 1
    290a:	09 f4       	brne	.+2      	; 0x290e <OLED_game+0x118>
    290c:	90 cf       	rjmp	.-224    	; 0x282e <OLED_game+0x38>
    290e:	b9 cf       	rjmp	.-142    	; 0x2882 <OLED_game+0x8c>
			CAN_message_send(&can_msg_send);
			gamestep = 2;
		}
	}
	while(gamestep == 2){	// Game started. Score-counting active. Will break when a health point is lost, returning to gamestep 1
		slider_pos = JOY_getSliderPosition();
    2910:	0e 94 d2 03 	call	0x7a4	; 0x7a4 <JOY_getSliderPosition>
    2914:	d8 2e       	mov	r13, r24
		position = JOY_getDirection();
    2916:	0e 94 b6 03 	call	0x76c	; 0x76c <JOY_getDirection>
		can_msg_send.data[0] = position.x;
    291a:	f8 01       	movw	r30, r16
    291c:	63 83       	std	Z+3, r22	; 0x03
		can_msg_send.data[1] = slider_pos.left;
    291e:	d4 82       	std	Z+4, r13	; 0x04
		can_msg_send.data[2] = joy_button(1);
    2920:	81 e0       	ldi	r24, 0x01	; 1
    2922:	90 e0       	ldi	r25, 0x00	; 0
    2924:	0e 94 3d 03 	call	0x67a	; 0x67a <joy_button>
    2928:	f8 01       	movw	r30, r16
    292a:	85 83       	std	Z+5, r24	; 0x05
		CAN_message_send(&can_msg_send);
    292c:	89 2d       	mov	r24, r9
    292e:	9c 2d       	mov	r25, r12
    2930:	0e 94 46 02 	call	0x48c	; 0x48c <CAN_message_send>
  		can_msg_receive = CAN_data_receive();
    2934:	ce 01       	movw	r24, r28
    2936:	01 96       	adiw	r24, 0x01	; 1
    2938:	0e 94 99 02 	call	0x532	; 0x532 <CAN_data_receive>
    293c:	8b e0       	ldi	r24, 0x0B	; 11
    293e:	fe 01       	movw	r30, r28
    2940:	31 96       	adiw	r30, 0x01	; 1
    2942:	ae e2       	ldi	r26, 0x2E	; 46
    2944:	b4 e0       	ldi	r27, 0x04	; 4
    2946:	01 90       	ld	r0, Z+
    2948:	0d 92       	st	X+, r0
    294a:	8a 95       	dec	r24
    294c:	e1 f7       	brne	.-8      	; 0x2946 <OLED_game+0x150>
  		hp_lost = can_msg_receive.data[5];
		if (!test_bit(PINB,PINB0)){
    294e:	b0 9b       	sbis	0x16, 0	; 22
    2950:	7a c0       	rjmp	.+244    	; 0x2a46 <OLED_game+0x250>
		can_msg_send.data[0] = position.x;
		can_msg_send.data[1] = slider_pos.left;
		can_msg_send.data[2] = joy_button(1);
		CAN_message_send(&can_msg_send);
  		can_msg_receive = CAN_data_receive();
  		hp_lost = can_msg_receive.data[5];
    2952:	80 91 36 04 	lds	r24, 0x0436	; 0x800436 <can_msg_receive+0x8>
    2956:	68 2e       	mov	r6, r24
    2958:	71 2c       	mov	r7, r1
    295a:	e7 ea       	ldi	r30, 0xA7	; 167
    295c:	f1 e6       	ldi	r31, 0x61	; 97
    295e:	31 97       	sbiw	r30, 0x01	; 1
    2960:	f1 f7       	brne	.-4      	; 0x295e <OLED_game+0x168>
    2962:	00 c0       	rjmp	.+0      	; 0x2964 <OLED_game+0x16e>
    2964:	00 00       	nop
		if (!test_bit(PINB,PINB0)){
			hp_lost=1;
		}
		_delay_ms(100);
		printf("hp_lost: %d \n \r", hp_lost);
    2966:	1f 92       	push	r1
    2968:	8f 93       	push	r24
    296a:	bf 92       	push	r11
    296c:	af 92       	push	r10
    296e:	0e 94 0d 18 	call	0x301a	; 0x301a <printf>
		if (hp_lost == 1){
    2972:	0f 90       	pop	r0
    2974:	0f 90       	pop	r0
    2976:	0f 90       	pop	r0
    2978:	0f 90       	pop	r0
    297a:	6a 94       	dec	r6
    297c:	67 28       	or	r6, r7
    297e:	81 f4       	brne	.+32     	; 0x29a0 <OLED_game+0x1aa>
			hp_lost = 0;
			hp = hp - 1;
    2980:	80 91 06 01 	lds	r24, 0x0106	; 0x800106 <hp>
    2984:	90 91 07 01 	lds	r25, 0x0107	; 0x800107 <hp+0x1>
    2988:	01 97       	sbiw	r24, 0x01	; 1
    298a:	90 93 07 01 	sts	0x0107, r25	; 0x800107 <hp+0x1>
    298e:	80 93 06 01 	sts	0x0106, r24	; 0x800106 <hp>
			gamestep = 1;
    2992:	81 e0       	ldi	r24, 0x01	; 1
    2994:	90 e0       	ldi	r25, 0x00	; 0
    2996:	90 93 09 01 	sts	0x0109, r25	; 0x800109 <gamestep+0x1>
    299a:	80 93 08 01 	sts	0x0108, r24	; 0x800108 <gamestep>
			break;
    299e:	4e c0       	rjmp	.+156    	; 0x2a3c <OLED_game+0x246>
    29a0:	21 e0       	ldi	r18, 0x01	; 1
    29a2:	e2 1a       	sub	r14, r18
    29a4:	f1 08       	sbc	r15, r1
		}
		counter = counter + 1;
		if (counter == 10){
    29a6:	09 f0       	breq	.+2      	; 0x29aa <OLED_game+0x1b4>
    29a8:	42 c0       	rjmp	.+132    	; 0x2a2e <OLED_game+0x238>
			OLED_clear();
    29aa:	0e 94 f0 11 	call	0x23e0	; 0x23e0 <OLED_clear>
			OLED_pos(3,2);
    29ae:	62 e0       	ldi	r22, 0x02	; 2
    29b0:	83 e0       	ldi	r24, 0x03	; 3
    29b2:	0e 94 c3 11 	call	0x2386	; 0x2386 <OLED_pos>
			if (hp == 3){
    29b6:	80 91 06 01 	lds	r24, 0x0106	; 0x800106 <hp>
    29ba:	90 91 07 01 	lds	r25, 0x0107	; 0x800107 <hp+0x1>
    29be:	83 30       	cpi	r24, 0x03	; 3
    29c0:	91 05       	cpc	r25, r1
    29c2:	29 f4       	brne	.+10     	; 0x29ce <OLED_game+0x1d8>
				OLED_print("Health: }}} ");
    29c4:	8a ee       	ldi	r24, 0xEA	; 234
    29c6:	93 e0       	ldi	r25, 0x03	; 3
    29c8:	0e 94 bd 12 	call	0x257a	; 0x257a <OLED_print>
    29cc:	0e c0       	rjmp	.+28     	; 0x29ea <OLED_game+0x1f4>
			}
			else if(hp == 2){
    29ce:	82 30       	cpi	r24, 0x02	; 2
    29d0:	91 05       	cpc	r25, r1
    29d2:	29 f4       	brne	.+10     	; 0x29de <OLED_game+0x1e8>
				OLED_print("Health: }} ");
    29d4:	87 ef       	ldi	r24, 0xF7	; 247
    29d6:	93 e0       	ldi	r25, 0x03	; 3
    29d8:	0e 94 bd 12 	call	0x257a	; 0x257a <OLED_print>
    29dc:	06 c0       	rjmp	.+12     	; 0x29ea <OLED_game+0x1f4>
			}
			else if(hp == 1){
    29de:	01 97       	sbiw	r24, 0x01	; 1
    29e0:	21 f4       	brne	.+8      	; 0x29ea <OLED_game+0x1f4>
				OLED_print("Health: } ");
    29e2:	83 e0       	ldi	r24, 0x03	; 3
    29e4:	94 e0       	ldi	r25, 0x04	; 4
    29e6:	0e 94 bd 12 	call	0x257a	; 0x257a <OLED_print>
			}
			OLED_pos(5,3);
    29ea:	63 e0       	ldi	r22, 0x03	; 3
    29ec:	85 e0       	ldi	r24, 0x05	; 5
    29ee:	0e 94 c3 11 	call	0x2386	; 0x2386 <OLED_pos>
			OLED_print("Score: ");
    29f2:	8e e0       	ldi	r24, 0x0E	; 14
    29f4:	94 e0       	ldi	r25, 0x04	; 4
    29f6:	0e 94 bd 12 	call	0x257a	; 0x257a <OLED_print>
			OLED_print(itoa(score, buffer, 10));
    29fa:	4a e0       	ldi	r20, 0x0A	; 10
    29fc:	50 e0       	ldi	r21, 0x00	; 0
    29fe:	68 e4       	ldi	r22, 0x48	; 72
    2a00:	74 e0       	ldi	r23, 0x04	; 4
    2a02:	80 91 39 04 	lds	r24, 0x0439	; 0x800439 <score>
    2a06:	90 91 3a 04 	lds	r25, 0x043A	; 0x80043a <score+0x1>
    2a0a:	0e 94 92 17 	call	0x2f24	; 0x2f24 <itoa>
    2a0e:	0e 94 bd 12 	call	0x257a	; 0x257a <OLED_print>
			score = score + 1;
    2a12:	80 91 39 04 	lds	r24, 0x0439	; 0x800439 <score>
    2a16:	90 91 3a 04 	lds	r25, 0x043A	; 0x80043a <score+0x1>
    2a1a:	01 96       	adiw	r24, 0x01	; 1
    2a1c:	90 93 3a 04 	sts	0x043A, r25	; 0x80043a <score+0x1>
    2a20:	80 93 39 04 	sts	0x0439, r24	; 0x800439 <score>
	_delay_ms(6000);
	char** string = endstr;
	return string;
}

int OLED_game(int diff){	// Main function for the game
    2a24:	0f 2e       	mov	r0, r31
    2a26:	fa e0       	ldi	r31, 0x0A	; 10
    2a28:	ef 2e       	mov	r14, r31
    2a2a:	f1 2c       	mov	r15, r1
    2a2c:	f0 2d       	mov	r31, r0
			can_msg_send.data[2] = joy_button(1);
			CAN_message_send(&can_msg_send);
			gamestep = 2;
		}
	}
	while(gamestep == 2){	// Game started. Score-counting active. Will break when a health point is lost, returning to gamestep 1
    2a2e:	80 91 08 01 	lds	r24, 0x0108	; 0x800108 <gamestep>
    2a32:	90 91 09 01 	lds	r25, 0x0109	; 0x800109 <gamestep+0x1>
    2a36:	02 97       	sbiw	r24, 0x02	; 2
    2a38:	09 f4       	brne	.+2      	; 0x2a3c <OLED_game+0x246>
    2a3a:	6a cf       	rjmp	.-300    	; 0x2910 <OLED_game+0x11a>
			OLED_print(itoa(score, buffer, 10));
			score = score + 1;
			counter = 0;
		}
	}
return score;
    2a3c:	80 91 39 04 	lds	r24, 0x0439	; 0x800439 <score>
    2a40:	90 91 3a 04 	lds	r25, 0x043A	; 0x80043a <score+0x1>
    2a44:	14 c0       	rjmp	.+40     	; 0x2a6e <OLED_game+0x278>
    2a46:	87 ea       	ldi	r24, 0xA7	; 167
    2a48:	91 e6       	ldi	r25, 0x61	; 97
    2a4a:	01 97       	sbiw	r24, 0x01	; 1
    2a4c:	f1 f7       	brne	.-4      	; 0x2a4a <OLED_game+0x254>
    2a4e:	00 c0       	rjmp	.+0      	; 0x2a50 <OLED_game+0x25a>
    2a50:	00 00       	nop
  		hp_lost = can_msg_receive.data[5];
		if (!test_bit(PINB,PINB0)){
			hp_lost=1;
		}
		_delay_ms(100);
		printf("hp_lost: %d \n \r", hp_lost);
    2a52:	1f 92       	push	r1
    2a54:	81 e0       	ldi	r24, 0x01	; 1
    2a56:	8f 93       	push	r24
    2a58:	8a ed       	ldi	r24, 0xDA	; 218
    2a5a:	93 e0       	ldi	r25, 0x03	; 3
    2a5c:	9f 93       	push	r25
    2a5e:	8f 93       	push	r24
    2a60:	0e 94 0d 18 	call	0x301a	; 0x301a <printf>
    2a64:	0f 90       	pop	r0
    2a66:	0f 90       	pop	r0
    2a68:	0f 90       	pop	r0
    2a6a:	0f 90       	pop	r0
    2a6c:	89 cf       	rjmp	.-238    	; 0x2980 <OLED_game+0x18a>
			score = score + 1;
			counter = 0;
		}
	}
return score;
}
    2a6e:	2b 96       	adiw	r28, 0x0b	; 11
    2a70:	0f b6       	in	r0, 0x3f	; 63
    2a72:	f8 94       	cli
    2a74:	de bf       	out	0x3e, r29	; 62
    2a76:	0f be       	out	0x3f, r0	; 63
    2a78:	cd bf       	out	0x3d, r28	; 61
    2a7a:	df 91       	pop	r29
    2a7c:	cf 91       	pop	r28
    2a7e:	1f 91       	pop	r17
    2a80:	0f 91       	pop	r16
    2a82:	ff 90       	pop	r15
    2a84:	ef 90       	pop	r14
    2a86:	df 90       	pop	r13
    2a88:	cf 90       	pop	r12
    2a8a:	bf 90       	pop	r11
    2a8c:	af 90       	pop	r10
    2a8e:	9f 90       	pop	r9
    2a90:	7f 90       	pop	r7
    2a92:	6f 90       	pop	r6
    2a94:	08 95       	ret

00002a96 <my_delay_ms>:

void my_delay_ms(int n) {			// For increasing game difficulty by changing the break inbetween frames.
	while(n--) {
    2a96:	00 97       	sbiw	r24, 0x00	; 0
    2a98:	41 f0       	breq	.+16     	; 0x2aaa <my_delay_ms+0x14>
    2a9a:	e9 ef       	ldi	r30, 0xF9	; 249
    2a9c:	f0 e0       	ldi	r31, 0x00	; 0
    2a9e:	31 97       	sbiw	r30, 0x01	; 1
    2aa0:	f1 f7       	brne	.-4      	; 0x2a9e <my_delay_ms+0x8>
    2aa2:	00 c0       	rjmp	.+0      	; 0x2aa4 <my_delay_ms+0xe>
    2aa4:	00 00       	nop
    2aa6:	01 97       	sbiw	r24, 0x01	; 1
    2aa8:	c1 f7       	brne	.-16     	; 0x2a9a <my_delay_ms+0x4>
    2aaa:	08 95       	ret

00002aac <SPI_init>:
	
	//Wait for data to be received
	while(!(SPSR & (1<<SPIF)));
	
	return SPDR;
}
    2aac:	87 b3       	in	r24, 0x17	; 23
    2aae:	80 6b       	ori	r24, 0xB0	; 176
    2ab0:	87 bb       	out	0x17, r24	; 23
    2ab2:	be 98       	cbi	0x17, 6	; 23
    2ab4:	81 e5       	ldi	r24, 0x51	; 81
    2ab6:	8d b9       	out	0x0d, r24	; 13
    2ab8:	08 95       	ret

00002aba <SPI_send>:
    2aba:	8f b9       	out	0x0f, r24	; 15
    2abc:	85 ef       	ldi	r24, 0xF5	; 245
    2abe:	90 e0       	ldi	r25, 0x00	; 0
    2ac0:	01 97       	sbiw	r24, 0x01	; 1
    2ac2:	f1 f7       	brne	.-4      	; 0x2ac0 <SPI_send+0x6>
    2ac4:	00 c0       	rjmp	.+0      	; 0x2ac6 <SPI_send+0xc>
    2ac6:	8f b1       	in	r24, 0x0f	; 15
    2ac8:	08 95       	ret

00002aca <SPI_set_ss>:

// Defines chip-select, is done manually
void SPI_set_ss( int select )
{
	//use Port B4 as SS
	if (select == 1){
    2aca:	81 30       	cpi	r24, 0x01	; 1
    2acc:	91 05       	cpc	r25, r1
    2ace:	11 f4       	brne	.+4      	; 0x2ad4 <SPI_set_ss+0xa>
		set_bit(PORTB, PB4);
    2ad0:	c4 9a       	sbi	0x18, 4	; 24
    2ad2:	08 95       	ret
	}
	else if (select == 0){
    2ad4:	89 2b       	or	r24, r25
    2ad6:	09 f4       	brne	.+2      	; 0x2ada <SPI_set_ss+0x10>
		clear_bit(PORTB, PB4);
    2ad8:	c4 98       	cbi	0x18, 4	; 24
    2ada:	08 95       	ret

00002adc <SRAM_init>:
*/

//function to set up SRAM
int SRAM_init(void) {
	//Enable the external memory interface/4 bits address
	MCUCR |= (1<<SRE);
    2adc:	85 b7       	in	r24, 0x35	; 53
    2ade:	80 68       	ori	r24, 0x80	; 128
    2ae0:	85 bf       	out	0x35, r24	; 53
	SFIOR |= (1<<XMM2);
    2ae2:	80 b7       	in	r24, 0x30	; 48
    2ae4:	80 62       	ori	r24, 0x20	; 32
    2ae6:	80 bf       	out	0x30, r24	; 48
	
	return 0;
}
    2ae8:	80 e0       	ldi	r24, 0x00	; 0
    2aea:	90 e0       	ldi	r25, 0x00	; 0
    2aec:	08 95       	ret

00002aee <UART_TX>:

//function that makes sending data over UART easier
int UART_TX(char data, FILE * _in){
	(void)(_in);
	
	while( !(UCSR0A & (1 << UDRE0)) );
    2aee:	5d 9b       	sbis	0x0b, 5	; 11
    2af0:	fe cf       	rjmp	.-4      	; 0x2aee <UART_TX>
	
	// send data
	UDR0 = data;
    2af2:	8c b9       	out	0x0c, r24	; 12
	
	return 0;
}
    2af4:	80 e0       	ldi	r24, 0x00	; 0
    2af6:	90 e0       	ldi	r25, 0x00	; 0
    2af8:	08 95       	ret

00002afa <UART_RX>:

//function for sending data over UART
int UART_RX(FILE * _in ){
	(void)(_in);
	while( !(UCSR0A & (1 << RXC0)) );
    2afa:	5f 9b       	sbis	0x0b, 7	; 11
    2afc:	fe cf       	rjmp	.-4      	; 0x2afa <UART_RX>
	
	// Data recieved
	return UDR0;
    2afe:	8c b1       	in	r24, 0x0c	; 12
    2b00:	90 e0       	ldi	r25, 0x00	; 0
    2b02:	08 95       	ret

00002b04 <UART_Init>:

//function that sets up the UART and serial communication parameters
void UART_Init(unsigned int ubrr)
{
	// Baud rate
	UBRR0H = (unsigned char)(ubrr >> 8);
    2b04:	90 bd       	out	0x20, r25	; 32
	UBRR0L = (unsigned char)(ubrr);
    2b06:	89 b9       	out	0x09, r24	; 9
	
	// Enable Rx and Tx
	UCSR0B = (1 << TXEN0) | (1 << RXEN0) ;
    2b08:	88 e1       	ldi	r24, 0x18	; 24
    2b0a:	8a b9       	out	0x0a, r24	; 10
	UCSR0C = (1 << URSEL0) | (1 << USBS0) | (3 << UCSZ00);
    2b0c:	8e e8       	ldi	r24, 0x8E	; 142
    2b0e:	80 bd       	out	0x20, r24	; 32
	fdevopen(UART_TX, UART_RX);
    2b10:	6d e7       	ldi	r22, 0x7D	; 125
    2b12:	75 e1       	ldi	r23, 0x15	; 21
    2b14:	87 e7       	ldi	r24, 0x77	; 119
    2b16:	95 e1       	ldi	r25, 0x15	; 21
    2b18:	0e 94 c2 17 	call	0x2f84	; 0x2f84 <fdevopen>
    2b1c:	08 95       	ret

00002b1e <__subsf3>:
    2b1e:	50 58       	subi	r21, 0x80	; 128

00002b20 <__addsf3>:
    2b20:	bb 27       	eor	r27, r27
    2b22:	aa 27       	eor	r26, r26
    2b24:	0e 94 a7 15 	call	0x2b4e	; 0x2b4e <__addsf3x>
    2b28:	0c 94 6b 16 	jmp	0x2cd6	; 0x2cd6 <__fp_round>
    2b2c:	0e 94 5d 16 	call	0x2cba	; 0x2cba <__fp_pscA>
    2b30:	38 f0       	brcs	.+14     	; 0x2b40 <__addsf3+0x20>
    2b32:	0e 94 64 16 	call	0x2cc8	; 0x2cc8 <__fp_pscB>
    2b36:	20 f0       	brcs	.+8      	; 0x2b40 <__addsf3+0x20>
    2b38:	39 f4       	brne	.+14     	; 0x2b48 <__addsf3+0x28>
    2b3a:	9f 3f       	cpi	r25, 0xFF	; 255
    2b3c:	19 f4       	brne	.+6      	; 0x2b44 <__addsf3+0x24>
    2b3e:	26 f4       	brtc	.+8      	; 0x2b48 <__addsf3+0x28>
    2b40:	0c 94 5a 16 	jmp	0x2cb4	; 0x2cb4 <__fp_nan>
    2b44:	0e f4       	brtc	.+2      	; 0x2b48 <__addsf3+0x28>
    2b46:	e0 95       	com	r30
    2b48:	e7 fb       	bst	r30, 7
    2b4a:	0c 94 54 16 	jmp	0x2ca8	; 0x2ca8 <__fp_inf>

00002b4e <__addsf3x>:
    2b4e:	e9 2f       	mov	r30, r25
    2b50:	0e 94 7c 16 	call	0x2cf8	; 0x2cf8 <__fp_split3>
    2b54:	58 f3       	brcs	.-42     	; 0x2b2c <__addsf3+0xc>
    2b56:	ba 17       	cp	r27, r26
    2b58:	62 07       	cpc	r22, r18
    2b5a:	73 07       	cpc	r23, r19
    2b5c:	84 07       	cpc	r24, r20
    2b5e:	95 07       	cpc	r25, r21
    2b60:	20 f0       	brcs	.+8      	; 0x2b6a <__addsf3x+0x1c>
    2b62:	79 f4       	brne	.+30     	; 0x2b82 <__addsf3x+0x34>
    2b64:	a6 f5       	brtc	.+104    	; 0x2bce <__addsf3x+0x80>
    2b66:	0c 94 9e 16 	jmp	0x2d3c	; 0x2d3c <__fp_zero>
    2b6a:	0e f4       	brtc	.+2      	; 0x2b6e <__addsf3x+0x20>
    2b6c:	e0 95       	com	r30
    2b6e:	0b 2e       	mov	r0, r27
    2b70:	ba 2f       	mov	r27, r26
    2b72:	a0 2d       	mov	r26, r0
    2b74:	0b 01       	movw	r0, r22
    2b76:	b9 01       	movw	r22, r18
    2b78:	90 01       	movw	r18, r0
    2b7a:	0c 01       	movw	r0, r24
    2b7c:	ca 01       	movw	r24, r20
    2b7e:	a0 01       	movw	r20, r0
    2b80:	11 24       	eor	r1, r1
    2b82:	ff 27       	eor	r31, r31
    2b84:	59 1b       	sub	r21, r25
    2b86:	99 f0       	breq	.+38     	; 0x2bae <__addsf3x+0x60>
    2b88:	59 3f       	cpi	r21, 0xF9	; 249
    2b8a:	50 f4       	brcc	.+20     	; 0x2ba0 <__addsf3x+0x52>
    2b8c:	50 3e       	cpi	r21, 0xE0	; 224
    2b8e:	68 f1       	brcs	.+90     	; 0x2bea <__addsf3x+0x9c>
    2b90:	1a 16       	cp	r1, r26
    2b92:	f0 40       	sbci	r31, 0x00	; 0
    2b94:	a2 2f       	mov	r26, r18
    2b96:	23 2f       	mov	r18, r19
    2b98:	34 2f       	mov	r19, r20
    2b9a:	44 27       	eor	r20, r20
    2b9c:	58 5f       	subi	r21, 0xF8	; 248
    2b9e:	f3 cf       	rjmp	.-26     	; 0x2b86 <__addsf3x+0x38>
    2ba0:	46 95       	lsr	r20
    2ba2:	37 95       	ror	r19
    2ba4:	27 95       	ror	r18
    2ba6:	a7 95       	ror	r26
    2ba8:	f0 40       	sbci	r31, 0x00	; 0
    2baa:	53 95       	inc	r21
    2bac:	c9 f7       	brne	.-14     	; 0x2ba0 <__addsf3x+0x52>
    2bae:	7e f4       	brtc	.+30     	; 0x2bce <__addsf3x+0x80>
    2bb0:	1f 16       	cp	r1, r31
    2bb2:	ba 0b       	sbc	r27, r26
    2bb4:	62 0b       	sbc	r22, r18
    2bb6:	73 0b       	sbc	r23, r19
    2bb8:	84 0b       	sbc	r24, r20
    2bba:	ba f0       	brmi	.+46     	; 0x2bea <__addsf3x+0x9c>
    2bbc:	91 50       	subi	r25, 0x01	; 1
    2bbe:	a1 f0       	breq	.+40     	; 0x2be8 <__addsf3x+0x9a>
    2bc0:	ff 0f       	add	r31, r31
    2bc2:	bb 1f       	adc	r27, r27
    2bc4:	66 1f       	adc	r22, r22
    2bc6:	77 1f       	adc	r23, r23
    2bc8:	88 1f       	adc	r24, r24
    2bca:	c2 f7       	brpl	.-16     	; 0x2bbc <__addsf3x+0x6e>
    2bcc:	0e c0       	rjmp	.+28     	; 0x2bea <__addsf3x+0x9c>
    2bce:	ba 0f       	add	r27, r26
    2bd0:	62 1f       	adc	r22, r18
    2bd2:	73 1f       	adc	r23, r19
    2bd4:	84 1f       	adc	r24, r20
    2bd6:	48 f4       	brcc	.+18     	; 0x2bea <__addsf3x+0x9c>
    2bd8:	87 95       	ror	r24
    2bda:	77 95       	ror	r23
    2bdc:	67 95       	ror	r22
    2bde:	b7 95       	ror	r27
    2be0:	f7 95       	ror	r31
    2be2:	9e 3f       	cpi	r25, 0xFE	; 254
    2be4:	08 f0       	brcs	.+2      	; 0x2be8 <__addsf3x+0x9a>
    2be6:	b0 cf       	rjmp	.-160    	; 0x2b48 <__addsf3+0x28>
    2be8:	93 95       	inc	r25
    2bea:	88 0f       	add	r24, r24
    2bec:	08 f0       	brcs	.+2      	; 0x2bf0 <__addsf3x+0xa2>
    2bee:	99 27       	eor	r25, r25
    2bf0:	ee 0f       	add	r30, r30
    2bf2:	97 95       	ror	r25
    2bf4:	87 95       	ror	r24
    2bf6:	08 95       	ret

00002bf8 <__cmpsf2>:
    2bf8:	0e 94 30 16 	call	0x2c60	; 0x2c60 <__fp_cmp>
    2bfc:	08 f4       	brcc	.+2      	; 0x2c00 <__cmpsf2+0x8>
    2bfe:	81 e0       	ldi	r24, 0x01	; 1
    2c00:	08 95       	ret

00002c02 <__fixunssfsi>:
    2c02:	0e 94 84 16 	call	0x2d08	; 0x2d08 <__fp_splitA>
    2c06:	88 f0       	brcs	.+34     	; 0x2c2a <__fixunssfsi+0x28>
    2c08:	9f 57       	subi	r25, 0x7F	; 127
    2c0a:	98 f0       	brcs	.+38     	; 0x2c32 <__fixunssfsi+0x30>
    2c0c:	b9 2f       	mov	r27, r25
    2c0e:	99 27       	eor	r25, r25
    2c10:	b7 51       	subi	r27, 0x17	; 23
    2c12:	b0 f0       	brcs	.+44     	; 0x2c40 <__fixunssfsi+0x3e>
    2c14:	e1 f0       	breq	.+56     	; 0x2c4e <__fixunssfsi+0x4c>
    2c16:	66 0f       	add	r22, r22
    2c18:	77 1f       	adc	r23, r23
    2c1a:	88 1f       	adc	r24, r24
    2c1c:	99 1f       	adc	r25, r25
    2c1e:	1a f0       	brmi	.+6      	; 0x2c26 <__fixunssfsi+0x24>
    2c20:	ba 95       	dec	r27
    2c22:	c9 f7       	brne	.-14     	; 0x2c16 <__fixunssfsi+0x14>
    2c24:	14 c0       	rjmp	.+40     	; 0x2c4e <__fixunssfsi+0x4c>
    2c26:	b1 30       	cpi	r27, 0x01	; 1
    2c28:	91 f0       	breq	.+36     	; 0x2c4e <__fixunssfsi+0x4c>
    2c2a:	0e 94 9e 16 	call	0x2d3c	; 0x2d3c <__fp_zero>
    2c2e:	b1 e0       	ldi	r27, 0x01	; 1
    2c30:	08 95       	ret
    2c32:	0c 94 9e 16 	jmp	0x2d3c	; 0x2d3c <__fp_zero>
    2c36:	67 2f       	mov	r22, r23
    2c38:	78 2f       	mov	r23, r24
    2c3a:	88 27       	eor	r24, r24
    2c3c:	b8 5f       	subi	r27, 0xF8	; 248
    2c3e:	39 f0       	breq	.+14     	; 0x2c4e <__fixunssfsi+0x4c>
    2c40:	b9 3f       	cpi	r27, 0xF9	; 249
    2c42:	cc f3       	brlt	.-14     	; 0x2c36 <__fixunssfsi+0x34>
    2c44:	86 95       	lsr	r24
    2c46:	77 95       	ror	r23
    2c48:	67 95       	ror	r22
    2c4a:	b3 95       	inc	r27
    2c4c:	d9 f7       	brne	.-10     	; 0x2c44 <__fixunssfsi+0x42>
    2c4e:	3e f4       	brtc	.+14     	; 0x2c5e <__fixunssfsi+0x5c>
    2c50:	90 95       	com	r25
    2c52:	80 95       	com	r24
    2c54:	70 95       	com	r23
    2c56:	61 95       	neg	r22
    2c58:	7f 4f       	sbci	r23, 0xFF	; 255
    2c5a:	8f 4f       	sbci	r24, 0xFF	; 255
    2c5c:	9f 4f       	sbci	r25, 0xFF	; 255
    2c5e:	08 95       	ret

00002c60 <__fp_cmp>:
    2c60:	99 0f       	add	r25, r25
    2c62:	00 08       	sbc	r0, r0
    2c64:	55 0f       	add	r21, r21
    2c66:	aa 0b       	sbc	r26, r26
    2c68:	e0 e8       	ldi	r30, 0x80	; 128
    2c6a:	fe ef       	ldi	r31, 0xFE	; 254
    2c6c:	16 16       	cp	r1, r22
    2c6e:	17 06       	cpc	r1, r23
    2c70:	e8 07       	cpc	r30, r24
    2c72:	f9 07       	cpc	r31, r25
    2c74:	c0 f0       	brcs	.+48     	; 0x2ca6 <__fp_cmp+0x46>
    2c76:	12 16       	cp	r1, r18
    2c78:	13 06       	cpc	r1, r19
    2c7a:	e4 07       	cpc	r30, r20
    2c7c:	f5 07       	cpc	r31, r21
    2c7e:	98 f0       	brcs	.+38     	; 0x2ca6 <__fp_cmp+0x46>
    2c80:	62 1b       	sub	r22, r18
    2c82:	73 0b       	sbc	r23, r19
    2c84:	84 0b       	sbc	r24, r20
    2c86:	95 0b       	sbc	r25, r21
    2c88:	39 f4       	brne	.+14     	; 0x2c98 <__fp_cmp+0x38>
    2c8a:	0a 26       	eor	r0, r26
    2c8c:	61 f0       	breq	.+24     	; 0x2ca6 <__fp_cmp+0x46>
    2c8e:	23 2b       	or	r18, r19
    2c90:	24 2b       	or	r18, r20
    2c92:	25 2b       	or	r18, r21
    2c94:	21 f4       	brne	.+8      	; 0x2c9e <__fp_cmp+0x3e>
    2c96:	08 95       	ret
    2c98:	0a 26       	eor	r0, r26
    2c9a:	09 f4       	brne	.+2      	; 0x2c9e <__fp_cmp+0x3e>
    2c9c:	a1 40       	sbci	r26, 0x01	; 1
    2c9e:	a6 95       	lsr	r26
    2ca0:	8f ef       	ldi	r24, 0xFF	; 255
    2ca2:	81 1d       	adc	r24, r1
    2ca4:	81 1d       	adc	r24, r1
    2ca6:	08 95       	ret

00002ca8 <__fp_inf>:
    2ca8:	97 f9       	bld	r25, 7
    2caa:	9f 67       	ori	r25, 0x7F	; 127
    2cac:	80 e8       	ldi	r24, 0x80	; 128
    2cae:	70 e0       	ldi	r23, 0x00	; 0
    2cb0:	60 e0       	ldi	r22, 0x00	; 0
    2cb2:	08 95       	ret

00002cb4 <__fp_nan>:
    2cb4:	9f ef       	ldi	r25, 0xFF	; 255
    2cb6:	80 ec       	ldi	r24, 0xC0	; 192
    2cb8:	08 95       	ret

00002cba <__fp_pscA>:
    2cba:	00 24       	eor	r0, r0
    2cbc:	0a 94       	dec	r0
    2cbe:	16 16       	cp	r1, r22
    2cc0:	17 06       	cpc	r1, r23
    2cc2:	18 06       	cpc	r1, r24
    2cc4:	09 06       	cpc	r0, r25
    2cc6:	08 95       	ret

00002cc8 <__fp_pscB>:
    2cc8:	00 24       	eor	r0, r0
    2cca:	0a 94       	dec	r0
    2ccc:	12 16       	cp	r1, r18
    2cce:	13 06       	cpc	r1, r19
    2cd0:	14 06       	cpc	r1, r20
    2cd2:	05 06       	cpc	r0, r21
    2cd4:	08 95       	ret

00002cd6 <__fp_round>:
    2cd6:	09 2e       	mov	r0, r25
    2cd8:	03 94       	inc	r0
    2cda:	00 0c       	add	r0, r0
    2cdc:	11 f4       	brne	.+4      	; 0x2ce2 <__fp_round+0xc>
    2cde:	88 23       	and	r24, r24
    2ce0:	52 f0       	brmi	.+20     	; 0x2cf6 <__fp_round+0x20>
    2ce2:	bb 0f       	add	r27, r27
    2ce4:	40 f4       	brcc	.+16     	; 0x2cf6 <__fp_round+0x20>
    2ce6:	bf 2b       	or	r27, r31
    2ce8:	11 f4       	brne	.+4      	; 0x2cee <__fp_round+0x18>
    2cea:	60 ff       	sbrs	r22, 0
    2cec:	04 c0       	rjmp	.+8      	; 0x2cf6 <__fp_round+0x20>
    2cee:	6f 5f       	subi	r22, 0xFF	; 255
    2cf0:	7f 4f       	sbci	r23, 0xFF	; 255
    2cf2:	8f 4f       	sbci	r24, 0xFF	; 255
    2cf4:	9f 4f       	sbci	r25, 0xFF	; 255
    2cf6:	08 95       	ret

00002cf8 <__fp_split3>:
    2cf8:	57 fd       	sbrc	r21, 7
    2cfa:	90 58       	subi	r25, 0x80	; 128
    2cfc:	44 0f       	add	r20, r20
    2cfe:	55 1f       	adc	r21, r21
    2d00:	59 f0       	breq	.+22     	; 0x2d18 <__fp_splitA+0x10>
    2d02:	5f 3f       	cpi	r21, 0xFF	; 255
    2d04:	71 f0       	breq	.+28     	; 0x2d22 <__fp_splitA+0x1a>
    2d06:	47 95       	ror	r20

00002d08 <__fp_splitA>:
    2d08:	88 0f       	add	r24, r24
    2d0a:	97 fb       	bst	r25, 7
    2d0c:	99 1f       	adc	r25, r25
    2d0e:	61 f0       	breq	.+24     	; 0x2d28 <__fp_splitA+0x20>
    2d10:	9f 3f       	cpi	r25, 0xFF	; 255
    2d12:	79 f0       	breq	.+30     	; 0x2d32 <__fp_splitA+0x2a>
    2d14:	87 95       	ror	r24
    2d16:	08 95       	ret
    2d18:	12 16       	cp	r1, r18
    2d1a:	13 06       	cpc	r1, r19
    2d1c:	14 06       	cpc	r1, r20
    2d1e:	55 1f       	adc	r21, r21
    2d20:	f2 cf       	rjmp	.-28     	; 0x2d06 <__fp_split3+0xe>
    2d22:	46 95       	lsr	r20
    2d24:	f1 df       	rcall	.-30     	; 0x2d08 <__fp_splitA>
    2d26:	08 c0       	rjmp	.+16     	; 0x2d38 <__fp_splitA+0x30>
    2d28:	16 16       	cp	r1, r22
    2d2a:	17 06       	cpc	r1, r23
    2d2c:	18 06       	cpc	r1, r24
    2d2e:	99 1f       	adc	r25, r25
    2d30:	f1 cf       	rjmp	.-30     	; 0x2d14 <__fp_splitA+0xc>
    2d32:	86 95       	lsr	r24
    2d34:	71 05       	cpc	r23, r1
    2d36:	61 05       	cpc	r22, r1
    2d38:	08 94       	sec
    2d3a:	08 95       	ret

00002d3c <__fp_zero>:
    2d3c:	e8 94       	clt

00002d3e <__fp_szero>:
    2d3e:	bb 27       	eor	r27, r27
    2d40:	66 27       	eor	r22, r22
    2d42:	77 27       	eor	r23, r23
    2d44:	cb 01       	movw	r24, r22
    2d46:	97 f9       	bld	r25, 7
    2d48:	08 95       	ret

00002d4a <__gesf2>:
    2d4a:	0e 94 30 16 	call	0x2c60	; 0x2c60 <__fp_cmp>
    2d4e:	08 f4       	brcc	.+2      	; 0x2d52 <__gesf2+0x8>
    2d50:	8f ef       	ldi	r24, 0xFF	; 255
    2d52:	08 95       	ret

00002d54 <__mulsf3>:
    2d54:	0e 94 bd 16 	call	0x2d7a	; 0x2d7a <__mulsf3x>
    2d58:	0c 94 6b 16 	jmp	0x2cd6	; 0x2cd6 <__fp_round>
    2d5c:	0e 94 5d 16 	call	0x2cba	; 0x2cba <__fp_pscA>
    2d60:	38 f0       	brcs	.+14     	; 0x2d70 <__mulsf3+0x1c>
    2d62:	0e 94 64 16 	call	0x2cc8	; 0x2cc8 <__fp_pscB>
    2d66:	20 f0       	brcs	.+8      	; 0x2d70 <__mulsf3+0x1c>
    2d68:	95 23       	and	r25, r21
    2d6a:	11 f0       	breq	.+4      	; 0x2d70 <__mulsf3+0x1c>
    2d6c:	0c 94 54 16 	jmp	0x2ca8	; 0x2ca8 <__fp_inf>
    2d70:	0c 94 5a 16 	jmp	0x2cb4	; 0x2cb4 <__fp_nan>
    2d74:	11 24       	eor	r1, r1
    2d76:	0c 94 9f 16 	jmp	0x2d3e	; 0x2d3e <__fp_szero>

00002d7a <__mulsf3x>:
    2d7a:	0e 94 7c 16 	call	0x2cf8	; 0x2cf8 <__fp_split3>
    2d7e:	70 f3       	brcs	.-36     	; 0x2d5c <__mulsf3+0x8>

00002d80 <__mulsf3_pse>:
    2d80:	95 9f       	mul	r25, r21
    2d82:	c1 f3       	breq	.-16     	; 0x2d74 <__mulsf3+0x20>
    2d84:	95 0f       	add	r25, r21
    2d86:	50 e0       	ldi	r21, 0x00	; 0
    2d88:	55 1f       	adc	r21, r21
    2d8a:	62 9f       	mul	r22, r18
    2d8c:	f0 01       	movw	r30, r0
    2d8e:	72 9f       	mul	r23, r18
    2d90:	bb 27       	eor	r27, r27
    2d92:	f0 0d       	add	r31, r0
    2d94:	b1 1d       	adc	r27, r1
    2d96:	63 9f       	mul	r22, r19
    2d98:	aa 27       	eor	r26, r26
    2d9a:	f0 0d       	add	r31, r0
    2d9c:	b1 1d       	adc	r27, r1
    2d9e:	aa 1f       	adc	r26, r26
    2da0:	64 9f       	mul	r22, r20
    2da2:	66 27       	eor	r22, r22
    2da4:	b0 0d       	add	r27, r0
    2da6:	a1 1d       	adc	r26, r1
    2da8:	66 1f       	adc	r22, r22
    2daa:	82 9f       	mul	r24, r18
    2dac:	22 27       	eor	r18, r18
    2dae:	b0 0d       	add	r27, r0
    2db0:	a1 1d       	adc	r26, r1
    2db2:	62 1f       	adc	r22, r18
    2db4:	73 9f       	mul	r23, r19
    2db6:	b0 0d       	add	r27, r0
    2db8:	a1 1d       	adc	r26, r1
    2dba:	62 1f       	adc	r22, r18
    2dbc:	83 9f       	mul	r24, r19
    2dbe:	a0 0d       	add	r26, r0
    2dc0:	61 1d       	adc	r22, r1
    2dc2:	22 1f       	adc	r18, r18
    2dc4:	74 9f       	mul	r23, r20
    2dc6:	33 27       	eor	r19, r19
    2dc8:	a0 0d       	add	r26, r0
    2dca:	61 1d       	adc	r22, r1
    2dcc:	23 1f       	adc	r18, r19
    2dce:	84 9f       	mul	r24, r20
    2dd0:	60 0d       	add	r22, r0
    2dd2:	21 1d       	adc	r18, r1
    2dd4:	82 2f       	mov	r24, r18
    2dd6:	76 2f       	mov	r23, r22
    2dd8:	6a 2f       	mov	r22, r26
    2dda:	11 24       	eor	r1, r1
    2ddc:	9f 57       	subi	r25, 0x7F	; 127
    2dde:	50 40       	sbci	r21, 0x00	; 0
    2de0:	9a f0       	brmi	.+38     	; 0x2e08 <__mulsf3_pse+0x88>
    2de2:	f1 f0       	breq	.+60     	; 0x2e20 <__mulsf3_pse+0xa0>
    2de4:	88 23       	and	r24, r24
    2de6:	4a f0       	brmi	.+18     	; 0x2dfa <__mulsf3_pse+0x7a>
    2de8:	ee 0f       	add	r30, r30
    2dea:	ff 1f       	adc	r31, r31
    2dec:	bb 1f       	adc	r27, r27
    2dee:	66 1f       	adc	r22, r22
    2df0:	77 1f       	adc	r23, r23
    2df2:	88 1f       	adc	r24, r24
    2df4:	91 50       	subi	r25, 0x01	; 1
    2df6:	50 40       	sbci	r21, 0x00	; 0
    2df8:	a9 f7       	brne	.-22     	; 0x2de4 <__mulsf3_pse+0x64>
    2dfa:	9e 3f       	cpi	r25, 0xFE	; 254
    2dfc:	51 05       	cpc	r21, r1
    2dfe:	80 f0       	brcs	.+32     	; 0x2e20 <__mulsf3_pse+0xa0>
    2e00:	0c 94 54 16 	jmp	0x2ca8	; 0x2ca8 <__fp_inf>
    2e04:	0c 94 9f 16 	jmp	0x2d3e	; 0x2d3e <__fp_szero>
    2e08:	5f 3f       	cpi	r21, 0xFF	; 255
    2e0a:	e4 f3       	brlt	.-8      	; 0x2e04 <__mulsf3_pse+0x84>
    2e0c:	98 3e       	cpi	r25, 0xE8	; 232
    2e0e:	d4 f3       	brlt	.-12     	; 0x2e04 <__mulsf3_pse+0x84>
    2e10:	86 95       	lsr	r24
    2e12:	77 95       	ror	r23
    2e14:	67 95       	ror	r22
    2e16:	b7 95       	ror	r27
    2e18:	f7 95       	ror	r31
    2e1a:	e7 95       	ror	r30
    2e1c:	9f 5f       	subi	r25, 0xFF	; 255
    2e1e:	c1 f7       	brne	.-16     	; 0x2e10 <__mulsf3_pse+0x90>
    2e20:	fe 2b       	or	r31, r30
    2e22:	88 0f       	add	r24, r24
    2e24:	91 1d       	adc	r25, r1
    2e26:	96 95       	lsr	r25
    2e28:	87 95       	ror	r24
    2e2a:	97 f9       	bld	r25, 7
    2e2c:	08 95       	ret

00002e2e <round>:
    2e2e:	0e 94 84 16 	call	0x2d08	; 0x2d08 <__fp_splitA>
    2e32:	e8 f0       	brcs	.+58     	; 0x2e6e <round+0x40>
    2e34:	9e 37       	cpi	r25, 0x7E	; 126
    2e36:	e8 f0       	brcs	.+58     	; 0x2e72 <round+0x44>
    2e38:	96 39       	cpi	r25, 0x96	; 150
    2e3a:	b8 f4       	brcc	.+46     	; 0x2e6a <round+0x3c>
    2e3c:	9e 38       	cpi	r25, 0x8E	; 142
    2e3e:	48 f4       	brcc	.+18     	; 0x2e52 <round+0x24>
    2e40:	67 2f       	mov	r22, r23
    2e42:	78 2f       	mov	r23, r24
    2e44:	88 27       	eor	r24, r24
    2e46:	98 5f       	subi	r25, 0xF8	; 248
    2e48:	f9 cf       	rjmp	.-14     	; 0x2e3c <round+0xe>
    2e4a:	86 95       	lsr	r24
    2e4c:	77 95       	ror	r23
    2e4e:	67 95       	ror	r22
    2e50:	93 95       	inc	r25
    2e52:	95 39       	cpi	r25, 0x95	; 149
    2e54:	d0 f3       	brcs	.-12     	; 0x2e4a <round+0x1c>
    2e56:	b6 2f       	mov	r27, r22
    2e58:	b1 70       	andi	r27, 0x01	; 1
    2e5a:	6b 0f       	add	r22, r27
    2e5c:	71 1d       	adc	r23, r1
    2e5e:	81 1d       	adc	r24, r1
    2e60:	20 f4       	brcc	.+8      	; 0x2e6a <round+0x3c>
    2e62:	87 95       	ror	r24
    2e64:	77 95       	ror	r23
    2e66:	67 95       	ror	r22
    2e68:	93 95       	inc	r25
    2e6a:	0c 94 3b 17 	jmp	0x2e76	; 0x2e76 <__fp_mintl>
    2e6e:	0c 94 56 17 	jmp	0x2eac	; 0x2eac <__fp_mpack>
    2e72:	0c 94 9f 16 	jmp	0x2d3e	; 0x2d3e <__fp_szero>

00002e76 <__fp_mintl>:
    2e76:	88 23       	and	r24, r24
    2e78:	71 f4       	brne	.+28     	; 0x2e96 <__fp_mintl+0x20>
    2e7a:	77 23       	and	r23, r23
    2e7c:	21 f0       	breq	.+8      	; 0x2e86 <__fp_mintl+0x10>
    2e7e:	98 50       	subi	r25, 0x08	; 8
    2e80:	87 2b       	or	r24, r23
    2e82:	76 2f       	mov	r23, r22
    2e84:	07 c0       	rjmp	.+14     	; 0x2e94 <__fp_mintl+0x1e>
    2e86:	66 23       	and	r22, r22
    2e88:	11 f4       	brne	.+4      	; 0x2e8e <__fp_mintl+0x18>
    2e8a:	99 27       	eor	r25, r25
    2e8c:	0d c0       	rjmp	.+26     	; 0x2ea8 <__fp_mintl+0x32>
    2e8e:	90 51       	subi	r25, 0x10	; 16
    2e90:	86 2b       	or	r24, r22
    2e92:	70 e0       	ldi	r23, 0x00	; 0
    2e94:	60 e0       	ldi	r22, 0x00	; 0
    2e96:	2a f0       	brmi	.+10     	; 0x2ea2 <__fp_mintl+0x2c>
    2e98:	9a 95       	dec	r25
    2e9a:	66 0f       	add	r22, r22
    2e9c:	77 1f       	adc	r23, r23
    2e9e:	88 1f       	adc	r24, r24
    2ea0:	da f7       	brpl	.-10     	; 0x2e98 <__fp_mintl+0x22>
    2ea2:	88 0f       	add	r24, r24
    2ea4:	96 95       	lsr	r25
    2ea6:	87 95       	ror	r24
    2ea8:	97 f9       	bld	r25, 7
    2eaa:	08 95       	ret

00002eac <__fp_mpack>:
    2eac:	9f 3f       	cpi	r25, 0xFF	; 255
    2eae:	31 f0       	breq	.+12     	; 0x2ebc <__fp_mpack_finite+0xc>

00002eb0 <__fp_mpack_finite>:
    2eb0:	91 50       	subi	r25, 0x01	; 1
    2eb2:	20 f4       	brcc	.+8      	; 0x2ebc <__fp_mpack_finite+0xc>
    2eb4:	87 95       	ror	r24
    2eb6:	77 95       	ror	r23
    2eb8:	67 95       	ror	r22
    2eba:	b7 95       	ror	r27
    2ebc:	88 0f       	add	r24, r24
    2ebe:	91 1d       	adc	r25, r1
    2ec0:	96 95       	lsr	r25
    2ec2:	87 95       	ror	r24
    2ec4:	97 f9       	bld	r25, 7
    2ec6:	08 95       	ret

00002ec8 <__divmodhi4>:
    2ec8:	97 fb       	bst	r25, 7
    2eca:	07 2e       	mov	r0, r23
    2ecc:	16 f4       	brtc	.+4      	; 0x2ed2 <__divmodhi4+0xa>
    2ece:	00 94       	com	r0
    2ed0:	07 d0       	rcall	.+14     	; 0x2ee0 <__divmodhi4_neg1>
    2ed2:	77 fd       	sbrc	r23, 7
    2ed4:	09 d0       	rcall	.+18     	; 0x2ee8 <__divmodhi4_neg2>
    2ed6:	0e 94 7e 17 	call	0x2efc	; 0x2efc <__udivmodhi4>
    2eda:	07 fc       	sbrc	r0, 7
    2edc:	05 d0       	rcall	.+10     	; 0x2ee8 <__divmodhi4_neg2>
    2ede:	3e f4       	brtc	.+14     	; 0x2eee <__divmodhi4_exit>

00002ee0 <__divmodhi4_neg1>:
    2ee0:	90 95       	com	r25
    2ee2:	81 95       	neg	r24
    2ee4:	9f 4f       	sbci	r25, 0xFF	; 255
    2ee6:	08 95       	ret

00002ee8 <__divmodhi4_neg2>:
    2ee8:	70 95       	com	r23
    2eea:	61 95       	neg	r22
    2eec:	7f 4f       	sbci	r23, 0xFF	; 255

00002eee <__divmodhi4_exit>:
    2eee:	08 95       	ret

00002ef0 <__tablejump2__>:
    2ef0:	ee 0f       	add	r30, r30
    2ef2:	ff 1f       	adc	r31, r31
    2ef4:	05 90       	lpm	r0, Z+
    2ef6:	f4 91       	lpm	r31, Z
    2ef8:	e0 2d       	mov	r30, r0
    2efa:	09 94       	ijmp

00002efc <__udivmodhi4>:
    2efc:	aa 1b       	sub	r26, r26
    2efe:	bb 1b       	sub	r27, r27
    2f00:	51 e1       	ldi	r21, 0x11	; 17
    2f02:	07 c0       	rjmp	.+14     	; 0x2f12 <__udivmodhi4_ep>

00002f04 <__udivmodhi4_loop>:
    2f04:	aa 1f       	adc	r26, r26
    2f06:	bb 1f       	adc	r27, r27
    2f08:	a6 17       	cp	r26, r22
    2f0a:	b7 07       	cpc	r27, r23
    2f0c:	10 f0       	brcs	.+4      	; 0x2f12 <__udivmodhi4_ep>
    2f0e:	a6 1b       	sub	r26, r22
    2f10:	b7 0b       	sbc	r27, r23

00002f12 <__udivmodhi4_ep>:
    2f12:	88 1f       	adc	r24, r24
    2f14:	99 1f       	adc	r25, r25
    2f16:	5a 95       	dec	r21
    2f18:	a9 f7       	brne	.-22     	; 0x2f04 <__udivmodhi4_loop>
    2f1a:	80 95       	com	r24
    2f1c:	90 95       	com	r25
    2f1e:	bc 01       	movw	r22, r24
    2f20:	cd 01       	movw	r24, r26
    2f22:	08 95       	ret

00002f24 <itoa>:
    2f24:	45 32       	cpi	r20, 0x25	; 37
    2f26:	51 05       	cpc	r21, r1
    2f28:	20 f4       	brcc	.+8      	; 0x2f32 <itoa+0xe>
    2f2a:	42 30       	cpi	r20, 0x02	; 2
    2f2c:	10 f0       	brcs	.+4      	; 0x2f32 <itoa+0xe>
    2f2e:	0c 94 9d 17 	jmp	0x2f3a	; 0x2f3a <__itoa_ncheck>
    2f32:	fb 01       	movw	r30, r22
    2f34:	10 82       	st	Z, r1
    2f36:	cb 01       	movw	r24, r22
    2f38:	08 95       	ret

00002f3a <__itoa_ncheck>:
    2f3a:	bb 27       	eor	r27, r27
    2f3c:	4a 30       	cpi	r20, 0x0A	; 10
    2f3e:	31 f4       	brne	.+12     	; 0x2f4c <__itoa_ncheck+0x12>
    2f40:	99 23       	and	r25, r25
    2f42:	22 f4       	brpl	.+8      	; 0x2f4c <__itoa_ncheck+0x12>
    2f44:	bd e2       	ldi	r27, 0x2D	; 45
    2f46:	90 95       	com	r25
    2f48:	81 95       	neg	r24
    2f4a:	9f 4f       	sbci	r25, 0xFF	; 255
    2f4c:	0c 94 a9 17 	jmp	0x2f52	; 0x2f52 <__utoa_common>

00002f50 <__utoa_ncheck>:
    2f50:	bb 27       	eor	r27, r27

00002f52 <__utoa_common>:
    2f52:	fb 01       	movw	r30, r22
    2f54:	55 27       	eor	r21, r21
    2f56:	aa 27       	eor	r26, r26
    2f58:	88 0f       	add	r24, r24
    2f5a:	99 1f       	adc	r25, r25
    2f5c:	aa 1f       	adc	r26, r26
    2f5e:	a4 17       	cp	r26, r20
    2f60:	10 f0       	brcs	.+4      	; 0x2f66 <__utoa_common+0x14>
    2f62:	a4 1b       	sub	r26, r20
    2f64:	83 95       	inc	r24
    2f66:	50 51       	subi	r21, 0x10	; 16
    2f68:	b9 f7       	brne	.-18     	; 0x2f58 <__utoa_common+0x6>
    2f6a:	a0 5d       	subi	r26, 0xD0	; 208
    2f6c:	aa 33       	cpi	r26, 0x3A	; 58
    2f6e:	08 f0       	brcs	.+2      	; 0x2f72 <__utoa_common+0x20>
    2f70:	a9 5d       	subi	r26, 0xD9	; 217
    2f72:	a1 93       	st	Z+, r26
    2f74:	00 97       	sbiw	r24, 0x00	; 0
    2f76:	79 f7       	brne	.-34     	; 0x2f56 <__utoa_common+0x4>
    2f78:	b1 11       	cpse	r27, r1
    2f7a:	b1 93       	st	Z+, r27
    2f7c:	11 92       	st	Z+, r1
    2f7e:	cb 01       	movw	r24, r22
    2f80:	0c 94 5e 1b 	jmp	0x36bc	; 0x36bc <strrev>

00002f84 <fdevopen>:
    2f84:	0f 93       	push	r16
    2f86:	1f 93       	push	r17
    2f88:	cf 93       	push	r28
    2f8a:	df 93       	push	r29
    2f8c:	00 97       	sbiw	r24, 0x00	; 0
    2f8e:	31 f4       	brne	.+12     	; 0x2f9c <fdevopen+0x18>
    2f90:	61 15       	cp	r22, r1
    2f92:	71 05       	cpc	r23, r1
    2f94:	19 f4       	brne	.+6      	; 0x2f9c <fdevopen+0x18>
    2f96:	80 e0       	ldi	r24, 0x00	; 0
    2f98:	90 e0       	ldi	r25, 0x00	; 0
    2f9a:	3a c0       	rjmp	.+116    	; 0x3010 <fdevopen+0x8c>
    2f9c:	8b 01       	movw	r16, r22
    2f9e:	ec 01       	movw	r28, r24
    2fa0:	6e e0       	ldi	r22, 0x0E	; 14
    2fa2:	70 e0       	ldi	r23, 0x00	; 0
    2fa4:	81 e0       	ldi	r24, 0x01	; 1
    2fa6:	90 e0       	ldi	r25, 0x00	; 0
    2fa8:	0e 94 04 1a 	call	0x3408	; 0x3408 <calloc>
    2fac:	fc 01       	movw	r30, r24
    2fae:	89 2b       	or	r24, r25
    2fb0:	91 f3       	breq	.-28     	; 0x2f96 <fdevopen+0x12>
    2fb2:	80 e8       	ldi	r24, 0x80	; 128
    2fb4:	83 83       	std	Z+3, r24	; 0x03
    2fb6:	01 15       	cp	r16, r1
    2fb8:	11 05       	cpc	r17, r1
    2fba:	71 f0       	breq	.+28     	; 0x2fd8 <fdevopen+0x54>
    2fbc:	13 87       	std	Z+11, r17	; 0x0b
    2fbe:	02 87       	std	Z+10, r16	; 0x0a
    2fc0:	81 e8       	ldi	r24, 0x81	; 129
    2fc2:	83 83       	std	Z+3, r24	; 0x03
    2fc4:	80 91 58 04 	lds	r24, 0x0458	; 0x800458 <__iob>
    2fc8:	90 91 59 04 	lds	r25, 0x0459	; 0x800459 <__iob+0x1>
    2fcc:	89 2b       	or	r24, r25
    2fce:	21 f4       	brne	.+8      	; 0x2fd8 <fdevopen+0x54>
    2fd0:	f0 93 59 04 	sts	0x0459, r31	; 0x800459 <__iob+0x1>
    2fd4:	e0 93 58 04 	sts	0x0458, r30	; 0x800458 <__iob>
    2fd8:	20 97       	sbiw	r28, 0x00	; 0
    2fda:	c9 f0       	breq	.+50     	; 0x300e <fdevopen+0x8a>
    2fdc:	d1 87       	std	Z+9, r29	; 0x09
    2fde:	c0 87       	std	Z+8, r28	; 0x08
    2fe0:	83 81       	ldd	r24, Z+3	; 0x03
    2fe2:	82 60       	ori	r24, 0x02	; 2
    2fe4:	83 83       	std	Z+3, r24	; 0x03
    2fe6:	80 91 5a 04 	lds	r24, 0x045A	; 0x80045a <__iob+0x2>
    2fea:	90 91 5b 04 	lds	r25, 0x045B	; 0x80045b <__iob+0x3>
    2fee:	89 2b       	or	r24, r25
    2ff0:	71 f4       	brne	.+28     	; 0x300e <fdevopen+0x8a>
    2ff2:	f0 93 5b 04 	sts	0x045B, r31	; 0x80045b <__iob+0x3>
    2ff6:	e0 93 5a 04 	sts	0x045A, r30	; 0x80045a <__iob+0x2>
    2ffa:	80 91 5c 04 	lds	r24, 0x045C	; 0x80045c <__iob+0x4>
    2ffe:	90 91 5d 04 	lds	r25, 0x045D	; 0x80045d <__iob+0x5>
    3002:	89 2b       	or	r24, r25
    3004:	21 f4       	brne	.+8      	; 0x300e <fdevopen+0x8a>
    3006:	f0 93 5d 04 	sts	0x045D, r31	; 0x80045d <__iob+0x5>
    300a:	e0 93 5c 04 	sts	0x045C, r30	; 0x80045c <__iob+0x4>
    300e:	cf 01       	movw	r24, r30
    3010:	df 91       	pop	r29
    3012:	cf 91       	pop	r28
    3014:	1f 91       	pop	r17
    3016:	0f 91       	pop	r16
    3018:	08 95       	ret

0000301a <printf>:
    301a:	a0 e0       	ldi	r26, 0x00	; 0
    301c:	b0 e0       	ldi	r27, 0x00	; 0
    301e:	e3 e1       	ldi	r30, 0x13	; 19
    3020:	f8 e1       	ldi	r31, 0x18	; 24
    3022:	0c 94 18 1c 	jmp	0x3830	; 0x3830 <__prologue_saves__+0x20>
    3026:	ae 01       	movw	r20, r28
    3028:	4b 5f       	subi	r20, 0xFB	; 251
    302a:	5f 4f       	sbci	r21, 0xFF	; 255
    302c:	fa 01       	movw	r30, r20
    302e:	61 91       	ld	r22, Z+
    3030:	71 91       	ld	r23, Z+
    3032:	af 01       	movw	r20, r30
    3034:	80 91 5a 04 	lds	r24, 0x045A	; 0x80045a <__iob+0x2>
    3038:	90 91 5b 04 	lds	r25, 0x045B	; 0x80045b <__iob+0x3>
    303c:	0e 94 23 18 	call	0x3046	; 0x3046 <vfprintf>
    3040:	e2 e0       	ldi	r30, 0x02	; 2
    3042:	0c 94 34 1c 	jmp	0x3868	; 0x3868 <__epilogue_restores__+0x20>

00003046 <vfprintf>:
    3046:	ab e0       	ldi	r26, 0x0B	; 11
    3048:	b0 e0       	ldi	r27, 0x00	; 0
    304a:	e9 e2       	ldi	r30, 0x29	; 41
    304c:	f8 e1       	ldi	r31, 0x18	; 24
    304e:	0c 94 08 1c 	jmp	0x3810	; 0x3810 <__prologue_saves__>
    3052:	6c 01       	movw	r12, r24
    3054:	7b 01       	movw	r14, r22
    3056:	8a 01       	movw	r16, r20
    3058:	fc 01       	movw	r30, r24
    305a:	17 82       	std	Z+7, r1	; 0x07
    305c:	16 82       	std	Z+6, r1	; 0x06
    305e:	83 81       	ldd	r24, Z+3	; 0x03
    3060:	81 ff       	sbrs	r24, 1
    3062:	cc c1       	rjmp	.+920    	; 0x33fc <vfprintf+0x3b6>
    3064:	ce 01       	movw	r24, r28
    3066:	01 96       	adiw	r24, 0x01	; 1
    3068:	3c 01       	movw	r6, r24
    306a:	f6 01       	movw	r30, r12
    306c:	93 81       	ldd	r25, Z+3	; 0x03
    306e:	f7 01       	movw	r30, r14
    3070:	93 fd       	sbrc	r25, 3
    3072:	85 91       	lpm	r24, Z+
    3074:	93 ff       	sbrs	r25, 3
    3076:	81 91       	ld	r24, Z+
    3078:	7f 01       	movw	r14, r30
    307a:	88 23       	and	r24, r24
    307c:	09 f4       	brne	.+2      	; 0x3080 <vfprintf+0x3a>
    307e:	ba c1       	rjmp	.+884    	; 0x33f4 <vfprintf+0x3ae>
    3080:	85 32       	cpi	r24, 0x25	; 37
    3082:	39 f4       	brne	.+14     	; 0x3092 <vfprintf+0x4c>
    3084:	93 fd       	sbrc	r25, 3
    3086:	85 91       	lpm	r24, Z+
    3088:	93 ff       	sbrs	r25, 3
    308a:	81 91       	ld	r24, Z+
    308c:	7f 01       	movw	r14, r30
    308e:	85 32       	cpi	r24, 0x25	; 37
    3090:	29 f4       	brne	.+10     	; 0x309c <vfprintf+0x56>
    3092:	b6 01       	movw	r22, r12
    3094:	90 e0       	ldi	r25, 0x00	; 0
    3096:	0e 94 6e 1b 	call	0x36dc	; 0x36dc <fputc>
    309a:	e7 cf       	rjmp	.-50     	; 0x306a <vfprintf+0x24>
    309c:	91 2c       	mov	r9, r1
    309e:	21 2c       	mov	r2, r1
    30a0:	31 2c       	mov	r3, r1
    30a2:	ff e1       	ldi	r31, 0x1F	; 31
    30a4:	f3 15       	cp	r31, r3
    30a6:	d8 f0       	brcs	.+54     	; 0x30de <vfprintf+0x98>
    30a8:	8b 32       	cpi	r24, 0x2B	; 43
    30aa:	79 f0       	breq	.+30     	; 0x30ca <vfprintf+0x84>
    30ac:	38 f4       	brcc	.+14     	; 0x30bc <vfprintf+0x76>
    30ae:	80 32       	cpi	r24, 0x20	; 32
    30b0:	79 f0       	breq	.+30     	; 0x30d0 <vfprintf+0x8a>
    30b2:	83 32       	cpi	r24, 0x23	; 35
    30b4:	a1 f4       	brne	.+40     	; 0x30de <vfprintf+0x98>
    30b6:	23 2d       	mov	r18, r3
    30b8:	20 61       	ori	r18, 0x10	; 16
    30ba:	1d c0       	rjmp	.+58     	; 0x30f6 <vfprintf+0xb0>
    30bc:	8d 32       	cpi	r24, 0x2D	; 45
    30be:	61 f0       	breq	.+24     	; 0x30d8 <vfprintf+0x92>
    30c0:	80 33       	cpi	r24, 0x30	; 48
    30c2:	69 f4       	brne	.+26     	; 0x30de <vfprintf+0x98>
    30c4:	23 2d       	mov	r18, r3
    30c6:	21 60       	ori	r18, 0x01	; 1
    30c8:	16 c0       	rjmp	.+44     	; 0x30f6 <vfprintf+0xb0>
    30ca:	83 2d       	mov	r24, r3
    30cc:	82 60       	ori	r24, 0x02	; 2
    30ce:	38 2e       	mov	r3, r24
    30d0:	e3 2d       	mov	r30, r3
    30d2:	e4 60       	ori	r30, 0x04	; 4
    30d4:	3e 2e       	mov	r3, r30
    30d6:	2a c0       	rjmp	.+84     	; 0x312c <vfprintf+0xe6>
    30d8:	f3 2d       	mov	r31, r3
    30da:	f8 60       	ori	r31, 0x08	; 8
    30dc:	1d c0       	rjmp	.+58     	; 0x3118 <vfprintf+0xd2>
    30de:	37 fc       	sbrc	r3, 7
    30e0:	2d c0       	rjmp	.+90     	; 0x313c <vfprintf+0xf6>
    30e2:	20 ed       	ldi	r18, 0xD0	; 208
    30e4:	28 0f       	add	r18, r24
    30e6:	2a 30       	cpi	r18, 0x0A	; 10
    30e8:	40 f0       	brcs	.+16     	; 0x30fa <vfprintf+0xb4>
    30ea:	8e 32       	cpi	r24, 0x2E	; 46
    30ec:	b9 f4       	brne	.+46     	; 0x311c <vfprintf+0xd6>
    30ee:	36 fc       	sbrc	r3, 6
    30f0:	81 c1       	rjmp	.+770    	; 0x33f4 <vfprintf+0x3ae>
    30f2:	23 2d       	mov	r18, r3
    30f4:	20 64       	ori	r18, 0x40	; 64
    30f6:	32 2e       	mov	r3, r18
    30f8:	19 c0       	rjmp	.+50     	; 0x312c <vfprintf+0xe6>
    30fa:	36 fe       	sbrs	r3, 6
    30fc:	06 c0       	rjmp	.+12     	; 0x310a <vfprintf+0xc4>
    30fe:	8a e0       	ldi	r24, 0x0A	; 10
    3100:	98 9e       	mul	r9, r24
    3102:	20 0d       	add	r18, r0
    3104:	11 24       	eor	r1, r1
    3106:	92 2e       	mov	r9, r18
    3108:	11 c0       	rjmp	.+34     	; 0x312c <vfprintf+0xe6>
    310a:	ea e0       	ldi	r30, 0x0A	; 10
    310c:	2e 9e       	mul	r2, r30
    310e:	20 0d       	add	r18, r0
    3110:	11 24       	eor	r1, r1
    3112:	22 2e       	mov	r2, r18
    3114:	f3 2d       	mov	r31, r3
    3116:	f0 62       	ori	r31, 0x20	; 32
    3118:	3f 2e       	mov	r3, r31
    311a:	08 c0       	rjmp	.+16     	; 0x312c <vfprintf+0xe6>
    311c:	8c 36       	cpi	r24, 0x6C	; 108
    311e:	21 f4       	brne	.+8      	; 0x3128 <vfprintf+0xe2>
    3120:	83 2d       	mov	r24, r3
    3122:	80 68       	ori	r24, 0x80	; 128
    3124:	38 2e       	mov	r3, r24
    3126:	02 c0       	rjmp	.+4      	; 0x312c <vfprintf+0xe6>
    3128:	88 36       	cpi	r24, 0x68	; 104
    312a:	41 f4       	brne	.+16     	; 0x313c <vfprintf+0xf6>
    312c:	f7 01       	movw	r30, r14
    312e:	93 fd       	sbrc	r25, 3
    3130:	85 91       	lpm	r24, Z+
    3132:	93 ff       	sbrs	r25, 3
    3134:	81 91       	ld	r24, Z+
    3136:	7f 01       	movw	r14, r30
    3138:	81 11       	cpse	r24, r1
    313a:	b3 cf       	rjmp	.-154    	; 0x30a2 <vfprintf+0x5c>
    313c:	98 2f       	mov	r25, r24
    313e:	9f 7d       	andi	r25, 0xDF	; 223
    3140:	95 54       	subi	r25, 0x45	; 69
    3142:	93 30       	cpi	r25, 0x03	; 3
    3144:	28 f4       	brcc	.+10     	; 0x3150 <vfprintf+0x10a>
    3146:	0c 5f       	subi	r16, 0xFC	; 252
    3148:	1f 4f       	sbci	r17, 0xFF	; 255
    314a:	9f e3       	ldi	r25, 0x3F	; 63
    314c:	99 83       	std	Y+1, r25	; 0x01
    314e:	0d c0       	rjmp	.+26     	; 0x316a <vfprintf+0x124>
    3150:	83 36       	cpi	r24, 0x63	; 99
    3152:	31 f0       	breq	.+12     	; 0x3160 <vfprintf+0x11a>
    3154:	83 37       	cpi	r24, 0x73	; 115
    3156:	71 f0       	breq	.+28     	; 0x3174 <vfprintf+0x12e>
    3158:	83 35       	cpi	r24, 0x53	; 83
    315a:	09 f0       	breq	.+2      	; 0x315e <vfprintf+0x118>
    315c:	59 c0       	rjmp	.+178    	; 0x3210 <vfprintf+0x1ca>
    315e:	21 c0       	rjmp	.+66     	; 0x31a2 <vfprintf+0x15c>
    3160:	f8 01       	movw	r30, r16
    3162:	80 81       	ld	r24, Z
    3164:	89 83       	std	Y+1, r24	; 0x01
    3166:	0e 5f       	subi	r16, 0xFE	; 254
    3168:	1f 4f       	sbci	r17, 0xFF	; 255
    316a:	88 24       	eor	r8, r8
    316c:	83 94       	inc	r8
    316e:	91 2c       	mov	r9, r1
    3170:	53 01       	movw	r10, r6
    3172:	13 c0       	rjmp	.+38     	; 0x319a <vfprintf+0x154>
    3174:	28 01       	movw	r4, r16
    3176:	f2 e0       	ldi	r31, 0x02	; 2
    3178:	4f 0e       	add	r4, r31
    317a:	51 1c       	adc	r5, r1
    317c:	f8 01       	movw	r30, r16
    317e:	a0 80       	ld	r10, Z
    3180:	b1 80       	ldd	r11, Z+1	; 0x01
    3182:	36 fe       	sbrs	r3, 6
    3184:	03 c0       	rjmp	.+6      	; 0x318c <vfprintf+0x146>
    3186:	69 2d       	mov	r22, r9
    3188:	70 e0       	ldi	r23, 0x00	; 0
    318a:	02 c0       	rjmp	.+4      	; 0x3190 <vfprintf+0x14a>
    318c:	6f ef       	ldi	r22, 0xFF	; 255
    318e:	7f ef       	ldi	r23, 0xFF	; 255
    3190:	c5 01       	movw	r24, r10
    3192:	0e 94 53 1b 	call	0x36a6	; 0x36a6 <strnlen>
    3196:	4c 01       	movw	r8, r24
    3198:	82 01       	movw	r16, r4
    319a:	f3 2d       	mov	r31, r3
    319c:	ff 77       	andi	r31, 0x7F	; 127
    319e:	3f 2e       	mov	r3, r31
    31a0:	16 c0       	rjmp	.+44     	; 0x31ce <vfprintf+0x188>
    31a2:	28 01       	movw	r4, r16
    31a4:	22 e0       	ldi	r18, 0x02	; 2
    31a6:	42 0e       	add	r4, r18
    31a8:	51 1c       	adc	r5, r1
    31aa:	f8 01       	movw	r30, r16
    31ac:	a0 80       	ld	r10, Z
    31ae:	b1 80       	ldd	r11, Z+1	; 0x01
    31b0:	36 fe       	sbrs	r3, 6
    31b2:	03 c0       	rjmp	.+6      	; 0x31ba <vfprintf+0x174>
    31b4:	69 2d       	mov	r22, r9
    31b6:	70 e0       	ldi	r23, 0x00	; 0
    31b8:	02 c0       	rjmp	.+4      	; 0x31be <vfprintf+0x178>
    31ba:	6f ef       	ldi	r22, 0xFF	; 255
    31bc:	7f ef       	ldi	r23, 0xFF	; 255
    31be:	c5 01       	movw	r24, r10
    31c0:	0e 94 41 1b 	call	0x3682	; 0x3682 <strnlen_P>
    31c4:	4c 01       	movw	r8, r24
    31c6:	f3 2d       	mov	r31, r3
    31c8:	f0 68       	ori	r31, 0x80	; 128
    31ca:	3f 2e       	mov	r3, r31
    31cc:	82 01       	movw	r16, r4
    31ce:	33 fc       	sbrc	r3, 3
    31d0:	1b c0       	rjmp	.+54     	; 0x3208 <vfprintf+0x1c2>
    31d2:	82 2d       	mov	r24, r2
    31d4:	90 e0       	ldi	r25, 0x00	; 0
    31d6:	88 16       	cp	r8, r24
    31d8:	99 06       	cpc	r9, r25
    31da:	b0 f4       	brcc	.+44     	; 0x3208 <vfprintf+0x1c2>
    31dc:	b6 01       	movw	r22, r12
    31de:	80 e2       	ldi	r24, 0x20	; 32
    31e0:	90 e0       	ldi	r25, 0x00	; 0
    31e2:	0e 94 6e 1b 	call	0x36dc	; 0x36dc <fputc>
    31e6:	2a 94       	dec	r2
    31e8:	f4 cf       	rjmp	.-24     	; 0x31d2 <vfprintf+0x18c>
    31ea:	f5 01       	movw	r30, r10
    31ec:	37 fc       	sbrc	r3, 7
    31ee:	85 91       	lpm	r24, Z+
    31f0:	37 fe       	sbrs	r3, 7
    31f2:	81 91       	ld	r24, Z+
    31f4:	5f 01       	movw	r10, r30
    31f6:	b6 01       	movw	r22, r12
    31f8:	90 e0       	ldi	r25, 0x00	; 0
    31fa:	0e 94 6e 1b 	call	0x36dc	; 0x36dc <fputc>
    31fe:	21 10       	cpse	r2, r1
    3200:	2a 94       	dec	r2
    3202:	21 e0       	ldi	r18, 0x01	; 1
    3204:	82 1a       	sub	r8, r18
    3206:	91 08       	sbc	r9, r1
    3208:	81 14       	cp	r8, r1
    320a:	91 04       	cpc	r9, r1
    320c:	71 f7       	brne	.-36     	; 0x31ea <vfprintf+0x1a4>
    320e:	e8 c0       	rjmp	.+464    	; 0x33e0 <vfprintf+0x39a>
    3210:	84 36       	cpi	r24, 0x64	; 100
    3212:	11 f0       	breq	.+4      	; 0x3218 <vfprintf+0x1d2>
    3214:	89 36       	cpi	r24, 0x69	; 105
    3216:	41 f5       	brne	.+80     	; 0x3268 <vfprintf+0x222>
    3218:	f8 01       	movw	r30, r16
    321a:	37 fe       	sbrs	r3, 7
    321c:	07 c0       	rjmp	.+14     	; 0x322c <vfprintf+0x1e6>
    321e:	60 81       	ld	r22, Z
    3220:	71 81       	ldd	r23, Z+1	; 0x01
    3222:	82 81       	ldd	r24, Z+2	; 0x02
    3224:	93 81       	ldd	r25, Z+3	; 0x03
    3226:	0c 5f       	subi	r16, 0xFC	; 252
    3228:	1f 4f       	sbci	r17, 0xFF	; 255
    322a:	08 c0       	rjmp	.+16     	; 0x323c <vfprintf+0x1f6>
    322c:	60 81       	ld	r22, Z
    322e:	71 81       	ldd	r23, Z+1	; 0x01
    3230:	07 2e       	mov	r0, r23
    3232:	00 0c       	add	r0, r0
    3234:	88 0b       	sbc	r24, r24
    3236:	99 0b       	sbc	r25, r25
    3238:	0e 5f       	subi	r16, 0xFE	; 254
    323a:	1f 4f       	sbci	r17, 0xFF	; 255
    323c:	f3 2d       	mov	r31, r3
    323e:	ff 76       	andi	r31, 0x6F	; 111
    3240:	3f 2e       	mov	r3, r31
    3242:	97 ff       	sbrs	r25, 7
    3244:	09 c0       	rjmp	.+18     	; 0x3258 <vfprintf+0x212>
    3246:	90 95       	com	r25
    3248:	80 95       	com	r24
    324a:	70 95       	com	r23
    324c:	61 95       	neg	r22
    324e:	7f 4f       	sbci	r23, 0xFF	; 255
    3250:	8f 4f       	sbci	r24, 0xFF	; 255
    3252:	9f 4f       	sbci	r25, 0xFF	; 255
    3254:	f0 68       	ori	r31, 0x80	; 128
    3256:	3f 2e       	mov	r3, r31
    3258:	2a e0       	ldi	r18, 0x0A	; 10
    325a:	30 e0       	ldi	r19, 0x00	; 0
    325c:	a3 01       	movw	r20, r6
    325e:	0e 94 aa 1b 	call	0x3754	; 0x3754 <__ultoa_invert>
    3262:	88 2e       	mov	r8, r24
    3264:	86 18       	sub	r8, r6
    3266:	45 c0       	rjmp	.+138    	; 0x32f2 <vfprintf+0x2ac>
    3268:	85 37       	cpi	r24, 0x75	; 117
    326a:	31 f4       	brne	.+12     	; 0x3278 <vfprintf+0x232>
    326c:	23 2d       	mov	r18, r3
    326e:	2f 7e       	andi	r18, 0xEF	; 239
    3270:	b2 2e       	mov	r11, r18
    3272:	2a e0       	ldi	r18, 0x0A	; 10
    3274:	30 e0       	ldi	r19, 0x00	; 0
    3276:	25 c0       	rjmp	.+74     	; 0x32c2 <vfprintf+0x27c>
    3278:	93 2d       	mov	r25, r3
    327a:	99 7f       	andi	r25, 0xF9	; 249
    327c:	b9 2e       	mov	r11, r25
    327e:	8f 36       	cpi	r24, 0x6F	; 111
    3280:	c1 f0       	breq	.+48     	; 0x32b2 <vfprintf+0x26c>
    3282:	18 f4       	brcc	.+6      	; 0x328a <vfprintf+0x244>
    3284:	88 35       	cpi	r24, 0x58	; 88
    3286:	79 f0       	breq	.+30     	; 0x32a6 <vfprintf+0x260>
    3288:	b5 c0       	rjmp	.+362    	; 0x33f4 <vfprintf+0x3ae>
    328a:	80 37       	cpi	r24, 0x70	; 112
    328c:	19 f0       	breq	.+6      	; 0x3294 <vfprintf+0x24e>
    328e:	88 37       	cpi	r24, 0x78	; 120
    3290:	21 f0       	breq	.+8      	; 0x329a <vfprintf+0x254>
    3292:	b0 c0       	rjmp	.+352    	; 0x33f4 <vfprintf+0x3ae>
    3294:	e9 2f       	mov	r30, r25
    3296:	e0 61       	ori	r30, 0x10	; 16
    3298:	be 2e       	mov	r11, r30
    329a:	b4 fe       	sbrs	r11, 4
    329c:	0d c0       	rjmp	.+26     	; 0x32b8 <vfprintf+0x272>
    329e:	fb 2d       	mov	r31, r11
    32a0:	f4 60       	ori	r31, 0x04	; 4
    32a2:	bf 2e       	mov	r11, r31
    32a4:	09 c0       	rjmp	.+18     	; 0x32b8 <vfprintf+0x272>
    32a6:	34 fe       	sbrs	r3, 4
    32a8:	0a c0       	rjmp	.+20     	; 0x32be <vfprintf+0x278>
    32aa:	29 2f       	mov	r18, r25
    32ac:	26 60       	ori	r18, 0x06	; 6
    32ae:	b2 2e       	mov	r11, r18
    32b0:	06 c0       	rjmp	.+12     	; 0x32be <vfprintf+0x278>
    32b2:	28 e0       	ldi	r18, 0x08	; 8
    32b4:	30 e0       	ldi	r19, 0x00	; 0
    32b6:	05 c0       	rjmp	.+10     	; 0x32c2 <vfprintf+0x27c>
    32b8:	20 e1       	ldi	r18, 0x10	; 16
    32ba:	30 e0       	ldi	r19, 0x00	; 0
    32bc:	02 c0       	rjmp	.+4      	; 0x32c2 <vfprintf+0x27c>
    32be:	20 e1       	ldi	r18, 0x10	; 16
    32c0:	32 e0       	ldi	r19, 0x02	; 2
    32c2:	f8 01       	movw	r30, r16
    32c4:	b7 fe       	sbrs	r11, 7
    32c6:	07 c0       	rjmp	.+14     	; 0x32d6 <vfprintf+0x290>
    32c8:	60 81       	ld	r22, Z
    32ca:	71 81       	ldd	r23, Z+1	; 0x01
    32cc:	82 81       	ldd	r24, Z+2	; 0x02
    32ce:	93 81       	ldd	r25, Z+3	; 0x03
    32d0:	0c 5f       	subi	r16, 0xFC	; 252
    32d2:	1f 4f       	sbci	r17, 0xFF	; 255
    32d4:	06 c0       	rjmp	.+12     	; 0x32e2 <vfprintf+0x29c>
    32d6:	60 81       	ld	r22, Z
    32d8:	71 81       	ldd	r23, Z+1	; 0x01
    32da:	80 e0       	ldi	r24, 0x00	; 0
    32dc:	90 e0       	ldi	r25, 0x00	; 0
    32de:	0e 5f       	subi	r16, 0xFE	; 254
    32e0:	1f 4f       	sbci	r17, 0xFF	; 255
    32e2:	a3 01       	movw	r20, r6
    32e4:	0e 94 aa 1b 	call	0x3754	; 0x3754 <__ultoa_invert>
    32e8:	88 2e       	mov	r8, r24
    32ea:	86 18       	sub	r8, r6
    32ec:	fb 2d       	mov	r31, r11
    32ee:	ff 77       	andi	r31, 0x7F	; 127
    32f0:	3f 2e       	mov	r3, r31
    32f2:	36 fe       	sbrs	r3, 6
    32f4:	0d c0       	rjmp	.+26     	; 0x3310 <vfprintf+0x2ca>
    32f6:	23 2d       	mov	r18, r3
    32f8:	2e 7f       	andi	r18, 0xFE	; 254
    32fa:	a2 2e       	mov	r10, r18
    32fc:	89 14       	cp	r8, r9
    32fe:	58 f4       	brcc	.+22     	; 0x3316 <vfprintf+0x2d0>
    3300:	34 fe       	sbrs	r3, 4
    3302:	0b c0       	rjmp	.+22     	; 0x331a <vfprintf+0x2d4>
    3304:	32 fc       	sbrc	r3, 2
    3306:	09 c0       	rjmp	.+18     	; 0x331a <vfprintf+0x2d4>
    3308:	83 2d       	mov	r24, r3
    330a:	8e 7e       	andi	r24, 0xEE	; 238
    330c:	a8 2e       	mov	r10, r24
    330e:	05 c0       	rjmp	.+10     	; 0x331a <vfprintf+0x2d4>
    3310:	b8 2c       	mov	r11, r8
    3312:	a3 2c       	mov	r10, r3
    3314:	03 c0       	rjmp	.+6      	; 0x331c <vfprintf+0x2d6>
    3316:	b8 2c       	mov	r11, r8
    3318:	01 c0       	rjmp	.+2      	; 0x331c <vfprintf+0x2d6>
    331a:	b9 2c       	mov	r11, r9
    331c:	a4 fe       	sbrs	r10, 4
    331e:	0f c0       	rjmp	.+30     	; 0x333e <vfprintf+0x2f8>
    3320:	fe 01       	movw	r30, r28
    3322:	e8 0d       	add	r30, r8
    3324:	f1 1d       	adc	r31, r1
    3326:	80 81       	ld	r24, Z
    3328:	80 33       	cpi	r24, 0x30	; 48
    332a:	21 f4       	brne	.+8      	; 0x3334 <vfprintf+0x2ee>
    332c:	9a 2d       	mov	r25, r10
    332e:	99 7e       	andi	r25, 0xE9	; 233
    3330:	a9 2e       	mov	r10, r25
    3332:	09 c0       	rjmp	.+18     	; 0x3346 <vfprintf+0x300>
    3334:	a2 fe       	sbrs	r10, 2
    3336:	06 c0       	rjmp	.+12     	; 0x3344 <vfprintf+0x2fe>
    3338:	b3 94       	inc	r11
    333a:	b3 94       	inc	r11
    333c:	04 c0       	rjmp	.+8      	; 0x3346 <vfprintf+0x300>
    333e:	8a 2d       	mov	r24, r10
    3340:	86 78       	andi	r24, 0x86	; 134
    3342:	09 f0       	breq	.+2      	; 0x3346 <vfprintf+0x300>
    3344:	b3 94       	inc	r11
    3346:	a3 fc       	sbrc	r10, 3
    3348:	11 c0       	rjmp	.+34     	; 0x336c <vfprintf+0x326>
    334a:	a0 fe       	sbrs	r10, 0
    334c:	06 c0       	rjmp	.+12     	; 0x335a <vfprintf+0x314>
    334e:	b2 14       	cp	r11, r2
    3350:	88 f4       	brcc	.+34     	; 0x3374 <vfprintf+0x32e>
    3352:	28 0c       	add	r2, r8
    3354:	92 2c       	mov	r9, r2
    3356:	9b 18       	sub	r9, r11
    3358:	0e c0       	rjmp	.+28     	; 0x3376 <vfprintf+0x330>
    335a:	b2 14       	cp	r11, r2
    335c:	60 f4       	brcc	.+24     	; 0x3376 <vfprintf+0x330>
    335e:	b6 01       	movw	r22, r12
    3360:	80 e2       	ldi	r24, 0x20	; 32
    3362:	90 e0       	ldi	r25, 0x00	; 0
    3364:	0e 94 6e 1b 	call	0x36dc	; 0x36dc <fputc>
    3368:	b3 94       	inc	r11
    336a:	f7 cf       	rjmp	.-18     	; 0x335a <vfprintf+0x314>
    336c:	b2 14       	cp	r11, r2
    336e:	18 f4       	brcc	.+6      	; 0x3376 <vfprintf+0x330>
    3370:	2b 18       	sub	r2, r11
    3372:	02 c0       	rjmp	.+4      	; 0x3378 <vfprintf+0x332>
    3374:	98 2c       	mov	r9, r8
    3376:	21 2c       	mov	r2, r1
    3378:	a4 fe       	sbrs	r10, 4
    337a:	10 c0       	rjmp	.+32     	; 0x339c <vfprintf+0x356>
    337c:	b6 01       	movw	r22, r12
    337e:	80 e3       	ldi	r24, 0x30	; 48
    3380:	90 e0       	ldi	r25, 0x00	; 0
    3382:	0e 94 6e 1b 	call	0x36dc	; 0x36dc <fputc>
    3386:	a2 fe       	sbrs	r10, 2
    3388:	17 c0       	rjmp	.+46     	; 0x33b8 <vfprintf+0x372>
    338a:	a1 fc       	sbrc	r10, 1
    338c:	03 c0       	rjmp	.+6      	; 0x3394 <vfprintf+0x34e>
    338e:	88 e7       	ldi	r24, 0x78	; 120
    3390:	90 e0       	ldi	r25, 0x00	; 0
    3392:	02 c0       	rjmp	.+4      	; 0x3398 <vfprintf+0x352>
    3394:	88 e5       	ldi	r24, 0x58	; 88
    3396:	90 e0       	ldi	r25, 0x00	; 0
    3398:	b6 01       	movw	r22, r12
    339a:	0c c0       	rjmp	.+24     	; 0x33b4 <vfprintf+0x36e>
    339c:	8a 2d       	mov	r24, r10
    339e:	86 78       	andi	r24, 0x86	; 134
    33a0:	59 f0       	breq	.+22     	; 0x33b8 <vfprintf+0x372>
    33a2:	a1 fe       	sbrs	r10, 1
    33a4:	02 c0       	rjmp	.+4      	; 0x33aa <vfprintf+0x364>
    33a6:	8b e2       	ldi	r24, 0x2B	; 43
    33a8:	01 c0       	rjmp	.+2      	; 0x33ac <vfprintf+0x366>
    33aa:	80 e2       	ldi	r24, 0x20	; 32
    33ac:	a7 fc       	sbrc	r10, 7
    33ae:	8d e2       	ldi	r24, 0x2D	; 45
    33b0:	b6 01       	movw	r22, r12
    33b2:	90 e0       	ldi	r25, 0x00	; 0
    33b4:	0e 94 6e 1b 	call	0x36dc	; 0x36dc <fputc>
    33b8:	89 14       	cp	r8, r9
    33ba:	38 f4       	brcc	.+14     	; 0x33ca <vfprintf+0x384>
    33bc:	b6 01       	movw	r22, r12
    33be:	80 e3       	ldi	r24, 0x30	; 48
    33c0:	90 e0       	ldi	r25, 0x00	; 0
    33c2:	0e 94 6e 1b 	call	0x36dc	; 0x36dc <fputc>
    33c6:	9a 94       	dec	r9
    33c8:	f7 cf       	rjmp	.-18     	; 0x33b8 <vfprintf+0x372>
    33ca:	8a 94       	dec	r8
    33cc:	f3 01       	movw	r30, r6
    33ce:	e8 0d       	add	r30, r8
    33d0:	f1 1d       	adc	r31, r1
    33d2:	80 81       	ld	r24, Z
    33d4:	b6 01       	movw	r22, r12
    33d6:	90 e0       	ldi	r25, 0x00	; 0
    33d8:	0e 94 6e 1b 	call	0x36dc	; 0x36dc <fputc>
    33dc:	81 10       	cpse	r8, r1
    33de:	f5 cf       	rjmp	.-22     	; 0x33ca <vfprintf+0x384>
    33e0:	22 20       	and	r2, r2
    33e2:	09 f4       	brne	.+2      	; 0x33e6 <vfprintf+0x3a0>
    33e4:	42 ce       	rjmp	.-892    	; 0x306a <vfprintf+0x24>
    33e6:	b6 01       	movw	r22, r12
    33e8:	80 e2       	ldi	r24, 0x20	; 32
    33ea:	90 e0       	ldi	r25, 0x00	; 0
    33ec:	0e 94 6e 1b 	call	0x36dc	; 0x36dc <fputc>
    33f0:	2a 94       	dec	r2
    33f2:	f6 cf       	rjmp	.-20     	; 0x33e0 <vfprintf+0x39a>
    33f4:	f6 01       	movw	r30, r12
    33f6:	86 81       	ldd	r24, Z+6	; 0x06
    33f8:	97 81       	ldd	r25, Z+7	; 0x07
    33fa:	02 c0       	rjmp	.+4      	; 0x3400 <vfprintf+0x3ba>
    33fc:	8f ef       	ldi	r24, 0xFF	; 255
    33fe:	9f ef       	ldi	r25, 0xFF	; 255
    3400:	2b 96       	adiw	r28, 0x0b	; 11
    3402:	e2 e1       	ldi	r30, 0x12	; 18
    3404:	0c 94 24 1c 	jmp	0x3848	; 0x3848 <__epilogue_restores__>

00003408 <calloc>:
    3408:	0f 93       	push	r16
    340a:	1f 93       	push	r17
    340c:	cf 93       	push	r28
    340e:	df 93       	push	r29
    3410:	86 9f       	mul	r24, r22
    3412:	80 01       	movw	r16, r0
    3414:	87 9f       	mul	r24, r23
    3416:	10 0d       	add	r17, r0
    3418:	96 9f       	mul	r25, r22
    341a:	10 0d       	add	r17, r0
    341c:	11 24       	eor	r1, r1
    341e:	c8 01       	movw	r24, r16
    3420:	0e 94 20 1a 	call	0x3440	; 0x3440 <malloc>
    3424:	ec 01       	movw	r28, r24
    3426:	00 97       	sbiw	r24, 0x00	; 0
    3428:	29 f0       	breq	.+10     	; 0x3434 <calloc+0x2c>
    342a:	a8 01       	movw	r20, r16
    342c:	60 e0       	ldi	r22, 0x00	; 0
    342e:	70 e0       	ldi	r23, 0x00	; 0
    3430:	0e 94 4c 1b 	call	0x3698	; 0x3698 <memset>
    3434:	ce 01       	movw	r24, r28
    3436:	df 91       	pop	r29
    3438:	cf 91       	pop	r28
    343a:	1f 91       	pop	r17
    343c:	0f 91       	pop	r16
    343e:	08 95       	ret

00003440 <malloc>:
    3440:	0f 93       	push	r16
    3442:	1f 93       	push	r17
    3444:	cf 93       	push	r28
    3446:	df 93       	push	r29
    3448:	82 30       	cpi	r24, 0x02	; 2
    344a:	91 05       	cpc	r25, r1
    344c:	10 f4       	brcc	.+4      	; 0x3452 <malloc+0x12>
    344e:	82 e0       	ldi	r24, 0x02	; 2
    3450:	90 e0       	ldi	r25, 0x00	; 0
    3452:	e0 91 60 04 	lds	r30, 0x0460	; 0x800460 <__flp>
    3456:	f0 91 61 04 	lds	r31, 0x0461	; 0x800461 <__flp+0x1>
    345a:	20 e0       	ldi	r18, 0x00	; 0
    345c:	30 e0       	ldi	r19, 0x00	; 0
    345e:	a0 e0       	ldi	r26, 0x00	; 0
    3460:	b0 e0       	ldi	r27, 0x00	; 0
    3462:	30 97       	sbiw	r30, 0x00	; 0
    3464:	19 f1       	breq	.+70     	; 0x34ac <malloc+0x6c>
    3466:	40 81       	ld	r20, Z
    3468:	51 81       	ldd	r21, Z+1	; 0x01
    346a:	02 81       	ldd	r16, Z+2	; 0x02
    346c:	13 81       	ldd	r17, Z+3	; 0x03
    346e:	48 17       	cp	r20, r24
    3470:	59 07       	cpc	r21, r25
    3472:	c8 f0       	brcs	.+50     	; 0x34a6 <malloc+0x66>
    3474:	84 17       	cp	r24, r20
    3476:	95 07       	cpc	r25, r21
    3478:	69 f4       	brne	.+26     	; 0x3494 <malloc+0x54>
    347a:	10 97       	sbiw	r26, 0x00	; 0
    347c:	31 f0       	breq	.+12     	; 0x348a <malloc+0x4a>
    347e:	12 96       	adiw	r26, 0x02	; 2
    3480:	0c 93       	st	X, r16
    3482:	12 97       	sbiw	r26, 0x02	; 2
    3484:	13 96       	adiw	r26, 0x03	; 3
    3486:	1c 93       	st	X, r17
    3488:	27 c0       	rjmp	.+78     	; 0x34d8 <malloc+0x98>
    348a:	00 93 60 04 	sts	0x0460, r16	; 0x800460 <__flp>
    348e:	10 93 61 04 	sts	0x0461, r17	; 0x800461 <__flp+0x1>
    3492:	22 c0       	rjmp	.+68     	; 0x34d8 <malloc+0x98>
    3494:	21 15       	cp	r18, r1
    3496:	31 05       	cpc	r19, r1
    3498:	19 f0       	breq	.+6      	; 0x34a0 <malloc+0x60>
    349a:	42 17       	cp	r20, r18
    349c:	53 07       	cpc	r21, r19
    349e:	18 f4       	brcc	.+6      	; 0x34a6 <malloc+0x66>
    34a0:	9a 01       	movw	r18, r20
    34a2:	bd 01       	movw	r22, r26
    34a4:	ef 01       	movw	r28, r30
    34a6:	df 01       	movw	r26, r30
    34a8:	f8 01       	movw	r30, r16
    34aa:	db cf       	rjmp	.-74     	; 0x3462 <malloc+0x22>
    34ac:	21 15       	cp	r18, r1
    34ae:	31 05       	cpc	r19, r1
    34b0:	f9 f0       	breq	.+62     	; 0x34f0 <malloc+0xb0>
    34b2:	28 1b       	sub	r18, r24
    34b4:	39 0b       	sbc	r19, r25
    34b6:	24 30       	cpi	r18, 0x04	; 4
    34b8:	31 05       	cpc	r19, r1
    34ba:	80 f4       	brcc	.+32     	; 0x34dc <malloc+0x9c>
    34bc:	8a 81       	ldd	r24, Y+2	; 0x02
    34be:	9b 81       	ldd	r25, Y+3	; 0x03
    34c0:	61 15       	cp	r22, r1
    34c2:	71 05       	cpc	r23, r1
    34c4:	21 f0       	breq	.+8      	; 0x34ce <malloc+0x8e>
    34c6:	fb 01       	movw	r30, r22
    34c8:	93 83       	std	Z+3, r25	; 0x03
    34ca:	82 83       	std	Z+2, r24	; 0x02
    34cc:	04 c0       	rjmp	.+8      	; 0x34d6 <malloc+0x96>
    34ce:	90 93 61 04 	sts	0x0461, r25	; 0x800461 <__flp+0x1>
    34d2:	80 93 60 04 	sts	0x0460, r24	; 0x800460 <__flp>
    34d6:	fe 01       	movw	r30, r28
    34d8:	32 96       	adiw	r30, 0x02	; 2
    34da:	44 c0       	rjmp	.+136    	; 0x3564 <malloc+0x124>
    34dc:	fe 01       	movw	r30, r28
    34de:	e2 0f       	add	r30, r18
    34e0:	f3 1f       	adc	r31, r19
    34e2:	81 93       	st	Z+, r24
    34e4:	91 93       	st	Z+, r25
    34e6:	22 50       	subi	r18, 0x02	; 2
    34e8:	31 09       	sbc	r19, r1
    34ea:	39 83       	std	Y+1, r19	; 0x01
    34ec:	28 83       	st	Y, r18
    34ee:	3a c0       	rjmp	.+116    	; 0x3564 <malloc+0x124>
    34f0:	20 91 5e 04 	lds	r18, 0x045E	; 0x80045e <__brkval>
    34f4:	30 91 5f 04 	lds	r19, 0x045F	; 0x80045f <__brkval+0x1>
    34f8:	23 2b       	or	r18, r19
    34fa:	41 f4       	brne	.+16     	; 0x350c <malloc+0xcc>
    34fc:	20 91 02 01 	lds	r18, 0x0102	; 0x800102 <__malloc_heap_start>
    3500:	30 91 03 01 	lds	r19, 0x0103	; 0x800103 <__malloc_heap_start+0x1>
    3504:	30 93 5f 04 	sts	0x045F, r19	; 0x80045f <__brkval+0x1>
    3508:	20 93 5e 04 	sts	0x045E, r18	; 0x80045e <__brkval>
    350c:	20 91 00 01 	lds	r18, 0x0100	; 0x800100 <__data_start>
    3510:	30 91 01 01 	lds	r19, 0x0101	; 0x800101 <__data_start+0x1>
    3514:	21 15       	cp	r18, r1
    3516:	31 05       	cpc	r19, r1
    3518:	41 f4       	brne	.+16     	; 0x352a <malloc+0xea>
    351a:	2d b7       	in	r18, 0x3d	; 61
    351c:	3e b7       	in	r19, 0x3e	; 62
    351e:	40 91 04 01 	lds	r20, 0x0104	; 0x800104 <__malloc_margin>
    3522:	50 91 05 01 	lds	r21, 0x0105	; 0x800105 <__malloc_margin+0x1>
    3526:	24 1b       	sub	r18, r20
    3528:	35 0b       	sbc	r19, r21
    352a:	e0 91 5e 04 	lds	r30, 0x045E	; 0x80045e <__brkval>
    352e:	f0 91 5f 04 	lds	r31, 0x045F	; 0x80045f <__brkval+0x1>
    3532:	e2 17       	cp	r30, r18
    3534:	f3 07       	cpc	r31, r19
    3536:	a0 f4       	brcc	.+40     	; 0x3560 <malloc+0x120>
    3538:	2e 1b       	sub	r18, r30
    353a:	3f 0b       	sbc	r19, r31
    353c:	28 17       	cp	r18, r24
    353e:	39 07       	cpc	r19, r25
    3540:	78 f0       	brcs	.+30     	; 0x3560 <malloc+0x120>
    3542:	ac 01       	movw	r20, r24
    3544:	4e 5f       	subi	r20, 0xFE	; 254
    3546:	5f 4f       	sbci	r21, 0xFF	; 255
    3548:	24 17       	cp	r18, r20
    354a:	35 07       	cpc	r19, r21
    354c:	48 f0       	brcs	.+18     	; 0x3560 <malloc+0x120>
    354e:	4e 0f       	add	r20, r30
    3550:	5f 1f       	adc	r21, r31
    3552:	50 93 5f 04 	sts	0x045F, r21	; 0x80045f <__brkval+0x1>
    3556:	40 93 5e 04 	sts	0x045E, r20	; 0x80045e <__brkval>
    355a:	81 93       	st	Z+, r24
    355c:	91 93       	st	Z+, r25
    355e:	02 c0       	rjmp	.+4      	; 0x3564 <malloc+0x124>
    3560:	e0 e0       	ldi	r30, 0x00	; 0
    3562:	f0 e0       	ldi	r31, 0x00	; 0
    3564:	cf 01       	movw	r24, r30
    3566:	df 91       	pop	r29
    3568:	cf 91       	pop	r28
    356a:	1f 91       	pop	r17
    356c:	0f 91       	pop	r16
    356e:	08 95       	ret

00003570 <free>:
    3570:	cf 93       	push	r28
    3572:	df 93       	push	r29
    3574:	00 97       	sbiw	r24, 0x00	; 0
    3576:	09 f4       	brne	.+2      	; 0x357a <free+0xa>
    3578:	81 c0       	rjmp	.+258    	; 0x367c <free+0x10c>
    357a:	fc 01       	movw	r30, r24
    357c:	32 97       	sbiw	r30, 0x02	; 2
    357e:	13 82       	std	Z+3, r1	; 0x03
    3580:	12 82       	std	Z+2, r1	; 0x02
    3582:	a0 91 60 04 	lds	r26, 0x0460	; 0x800460 <__flp>
    3586:	b0 91 61 04 	lds	r27, 0x0461	; 0x800461 <__flp+0x1>
    358a:	10 97       	sbiw	r26, 0x00	; 0
    358c:	81 f4       	brne	.+32     	; 0x35ae <free+0x3e>
    358e:	20 81       	ld	r18, Z
    3590:	31 81       	ldd	r19, Z+1	; 0x01
    3592:	82 0f       	add	r24, r18
    3594:	93 1f       	adc	r25, r19
    3596:	20 91 5e 04 	lds	r18, 0x045E	; 0x80045e <__brkval>
    359a:	30 91 5f 04 	lds	r19, 0x045F	; 0x80045f <__brkval+0x1>
    359e:	28 17       	cp	r18, r24
    35a0:	39 07       	cpc	r19, r25
    35a2:	51 f5       	brne	.+84     	; 0x35f8 <free+0x88>
    35a4:	f0 93 5f 04 	sts	0x045F, r31	; 0x80045f <__brkval+0x1>
    35a8:	e0 93 5e 04 	sts	0x045E, r30	; 0x80045e <__brkval>
    35ac:	67 c0       	rjmp	.+206    	; 0x367c <free+0x10c>
    35ae:	ed 01       	movw	r28, r26
    35b0:	20 e0       	ldi	r18, 0x00	; 0
    35b2:	30 e0       	ldi	r19, 0x00	; 0
    35b4:	ce 17       	cp	r28, r30
    35b6:	df 07       	cpc	r29, r31
    35b8:	40 f4       	brcc	.+16     	; 0x35ca <free+0x5a>
    35ba:	4a 81       	ldd	r20, Y+2	; 0x02
    35bc:	5b 81       	ldd	r21, Y+3	; 0x03
    35be:	9e 01       	movw	r18, r28
    35c0:	41 15       	cp	r20, r1
    35c2:	51 05       	cpc	r21, r1
    35c4:	f1 f0       	breq	.+60     	; 0x3602 <free+0x92>
    35c6:	ea 01       	movw	r28, r20
    35c8:	f5 cf       	rjmp	.-22     	; 0x35b4 <free+0x44>
    35ca:	d3 83       	std	Z+3, r29	; 0x03
    35cc:	c2 83       	std	Z+2, r28	; 0x02
    35ce:	40 81       	ld	r20, Z
    35d0:	51 81       	ldd	r21, Z+1	; 0x01
    35d2:	84 0f       	add	r24, r20
    35d4:	95 1f       	adc	r25, r21
    35d6:	c8 17       	cp	r28, r24
    35d8:	d9 07       	cpc	r29, r25
    35da:	59 f4       	brne	.+22     	; 0x35f2 <free+0x82>
    35dc:	88 81       	ld	r24, Y
    35de:	99 81       	ldd	r25, Y+1	; 0x01
    35e0:	84 0f       	add	r24, r20
    35e2:	95 1f       	adc	r25, r21
    35e4:	02 96       	adiw	r24, 0x02	; 2
    35e6:	91 83       	std	Z+1, r25	; 0x01
    35e8:	80 83       	st	Z, r24
    35ea:	8a 81       	ldd	r24, Y+2	; 0x02
    35ec:	9b 81       	ldd	r25, Y+3	; 0x03
    35ee:	93 83       	std	Z+3, r25	; 0x03
    35f0:	82 83       	std	Z+2, r24	; 0x02
    35f2:	21 15       	cp	r18, r1
    35f4:	31 05       	cpc	r19, r1
    35f6:	29 f4       	brne	.+10     	; 0x3602 <free+0x92>
    35f8:	f0 93 61 04 	sts	0x0461, r31	; 0x800461 <__flp+0x1>
    35fc:	e0 93 60 04 	sts	0x0460, r30	; 0x800460 <__flp>
    3600:	3d c0       	rjmp	.+122    	; 0x367c <free+0x10c>
    3602:	e9 01       	movw	r28, r18
    3604:	fb 83       	std	Y+3, r31	; 0x03
    3606:	ea 83       	std	Y+2, r30	; 0x02
    3608:	49 91       	ld	r20, Y+
    360a:	59 91       	ld	r21, Y+
    360c:	c4 0f       	add	r28, r20
    360e:	d5 1f       	adc	r29, r21
    3610:	ec 17       	cp	r30, r28
    3612:	fd 07       	cpc	r31, r29
    3614:	61 f4       	brne	.+24     	; 0x362e <free+0xbe>
    3616:	80 81       	ld	r24, Z
    3618:	91 81       	ldd	r25, Z+1	; 0x01
    361a:	84 0f       	add	r24, r20
    361c:	95 1f       	adc	r25, r21
    361e:	02 96       	adiw	r24, 0x02	; 2
    3620:	e9 01       	movw	r28, r18
    3622:	99 83       	std	Y+1, r25	; 0x01
    3624:	88 83       	st	Y, r24
    3626:	82 81       	ldd	r24, Z+2	; 0x02
    3628:	93 81       	ldd	r25, Z+3	; 0x03
    362a:	9b 83       	std	Y+3, r25	; 0x03
    362c:	8a 83       	std	Y+2, r24	; 0x02
    362e:	e0 e0       	ldi	r30, 0x00	; 0
    3630:	f0 e0       	ldi	r31, 0x00	; 0
    3632:	12 96       	adiw	r26, 0x02	; 2
    3634:	8d 91       	ld	r24, X+
    3636:	9c 91       	ld	r25, X
    3638:	13 97       	sbiw	r26, 0x03	; 3
    363a:	00 97       	sbiw	r24, 0x00	; 0
    363c:	19 f0       	breq	.+6      	; 0x3644 <free+0xd4>
    363e:	fd 01       	movw	r30, r26
    3640:	dc 01       	movw	r26, r24
    3642:	f7 cf       	rjmp	.-18     	; 0x3632 <free+0xc2>
    3644:	8d 91       	ld	r24, X+
    3646:	9c 91       	ld	r25, X
    3648:	11 97       	sbiw	r26, 0x01	; 1
    364a:	9d 01       	movw	r18, r26
    364c:	2e 5f       	subi	r18, 0xFE	; 254
    364e:	3f 4f       	sbci	r19, 0xFF	; 255
    3650:	82 0f       	add	r24, r18
    3652:	93 1f       	adc	r25, r19
    3654:	20 91 5e 04 	lds	r18, 0x045E	; 0x80045e <__brkval>
    3658:	30 91 5f 04 	lds	r19, 0x045F	; 0x80045f <__brkval+0x1>
    365c:	28 17       	cp	r18, r24
    365e:	39 07       	cpc	r19, r25
    3660:	69 f4       	brne	.+26     	; 0x367c <free+0x10c>
    3662:	30 97       	sbiw	r30, 0x00	; 0
    3664:	29 f4       	brne	.+10     	; 0x3670 <free+0x100>
    3666:	10 92 61 04 	sts	0x0461, r1	; 0x800461 <__flp+0x1>
    366a:	10 92 60 04 	sts	0x0460, r1	; 0x800460 <__flp>
    366e:	02 c0       	rjmp	.+4      	; 0x3674 <free+0x104>
    3670:	13 82       	std	Z+3, r1	; 0x03
    3672:	12 82       	std	Z+2, r1	; 0x02
    3674:	b0 93 5f 04 	sts	0x045F, r27	; 0x80045f <__brkval+0x1>
    3678:	a0 93 5e 04 	sts	0x045E, r26	; 0x80045e <__brkval>
    367c:	df 91       	pop	r29
    367e:	cf 91       	pop	r28
    3680:	08 95       	ret

00003682 <strnlen_P>:
    3682:	fc 01       	movw	r30, r24
    3684:	05 90       	lpm	r0, Z+
    3686:	61 50       	subi	r22, 0x01	; 1
    3688:	70 40       	sbci	r23, 0x00	; 0
    368a:	01 10       	cpse	r0, r1
    368c:	d8 f7       	brcc	.-10     	; 0x3684 <strnlen_P+0x2>
    368e:	80 95       	com	r24
    3690:	90 95       	com	r25
    3692:	8e 0f       	add	r24, r30
    3694:	9f 1f       	adc	r25, r31
    3696:	08 95       	ret

00003698 <memset>:
    3698:	dc 01       	movw	r26, r24
    369a:	01 c0       	rjmp	.+2      	; 0x369e <memset+0x6>
    369c:	6d 93       	st	X+, r22
    369e:	41 50       	subi	r20, 0x01	; 1
    36a0:	50 40       	sbci	r21, 0x00	; 0
    36a2:	e0 f7       	brcc	.-8      	; 0x369c <memset+0x4>
    36a4:	08 95       	ret

000036a6 <strnlen>:
    36a6:	fc 01       	movw	r30, r24
    36a8:	61 50       	subi	r22, 0x01	; 1
    36aa:	70 40       	sbci	r23, 0x00	; 0
    36ac:	01 90       	ld	r0, Z+
    36ae:	01 10       	cpse	r0, r1
    36b0:	d8 f7       	brcc	.-10     	; 0x36a8 <strnlen+0x2>
    36b2:	80 95       	com	r24
    36b4:	90 95       	com	r25
    36b6:	8e 0f       	add	r24, r30
    36b8:	9f 1f       	adc	r25, r31
    36ba:	08 95       	ret

000036bc <strrev>:
    36bc:	dc 01       	movw	r26, r24
    36be:	fc 01       	movw	r30, r24
    36c0:	67 2f       	mov	r22, r23
    36c2:	71 91       	ld	r23, Z+
    36c4:	77 23       	and	r23, r23
    36c6:	e1 f7       	brne	.-8      	; 0x36c0 <strrev+0x4>
    36c8:	32 97       	sbiw	r30, 0x02	; 2
    36ca:	04 c0       	rjmp	.+8      	; 0x36d4 <strrev+0x18>
    36cc:	7c 91       	ld	r23, X
    36ce:	6d 93       	st	X+, r22
    36d0:	70 83       	st	Z, r23
    36d2:	62 91       	ld	r22, -Z
    36d4:	ae 17       	cp	r26, r30
    36d6:	bf 07       	cpc	r27, r31
    36d8:	c8 f3       	brcs	.-14     	; 0x36cc <strrev+0x10>
    36da:	08 95       	ret

000036dc <fputc>:
    36dc:	0f 93       	push	r16
    36de:	1f 93       	push	r17
    36e0:	cf 93       	push	r28
    36e2:	df 93       	push	r29
    36e4:	fb 01       	movw	r30, r22
    36e6:	23 81       	ldd	r18, Z+3	; 0x03
    36e8:	21 fd       	sbrc	r18, 1
    36ea:	03 c0       	rjmp	.+6      	; 0x36f2 <fputc+0x16>
    36ec:	8f ef       	ldi	r24, 0xFF	; 255
    36ee:	9f ef       	ldi	r25, 0xFF	; 255
    36f0:	2c c0       	rjmp	.+88     	; 0x374a <fputc+0x6e>
    36f2:	22 ff       	sbrs	r18, 2
    36f4:	16 c0       	rjmp	.+44     	; 0x3722 <fputc+0x46>
    36f6:	46 81       	ldd	r20, Z+6	; 0x06
    36f8:	57 81       	ldd	r21, Z+7	; 0x07
    36fa:	24 81       	ldd	r18, Z+4	; 0x04
    36fc:	35 81       	ldd	r19, Z+5	; 0x05
    36fe:	42 17       	cp	r20, r18
    3700:	53 07       	cpc	r21, r19
    3702:	44 f4       	brge	.+16     	; 0x3714 <fputc+0x38>
    3704:	a0 81       	ld	r26, Z
    3706:	b1 81       	ldd	r27, Z+1	; 0x01
    3708:	9d 01       	movw	r18, r26
    370a:	2f 5f       	subi	r18, 0xFF	; 255
    370c:	3f 4f       	sbci	r19, 0xFF	; 255
    370e:	31 83       	std	Z+1, r19	; 0x01
    3710:	20 83       	st	Z, r18
    3712:	8c 93       	st	X, r24
    3714:	26 81       	ldd	r18, Z+6	; 0x06
    3716:	37 81       	ldd	r19, Z+7	; 0x07
    3718:	2f 5f       	subi	r18, 0xFF	; 255
    371a:	3f 4f       	sbci	r19, 0xFF	; 255
    371c:	37 83       	std	Z+7, r19	; 0x07
    371e:	26 83       	std	Z+6, r18	; 0x06
    3720:	14 c0       	rjmp	.+40     	; 0x374a <fputc+0x6e>
    3722:	8b 01       	movw	r16, r22
    3724:	ec 01       	movw	r28, r24
    3726:	fb 01       	movw	r30, r22
    3728:	00 84       	ldd	r0, Z+8	; 0x08
    372a:	f1 85       	ldd	r31, Z+9	; 0x09
    372c:	e0 2d       	mov	r30, r0
    372e:	09 95       	icall
    3730:	89 2b       	or	r24, r25
    3732:	e1 f6       	brne	.-72     	; 0x36ec <fputc+0x10>
    3734:	d8 01       	movw	r26, r16
    3736:	16 96       	adiw	r26, 0x06	; 6
    3738:	8d 91       	ld	r24, X+
    373a:	9c 91       	ld	r25, X
    373c:	17 97       	sbiw	r26, 0x07	; 7
    373e:	01 96       	adiw	r24, 0x01	; 1
    3740:	17 96       	adiw	r26, 0x07	; 7
    3742:	9c 93       	st	X, r25
    3744:	8e 93       	st	-X, r24
    3746:	16 97       	sbiw	r26, 0x06	; 6
    3748:	ce 01       	movw	r24, r28
    374a:	df 91       	pop	r29
    374c:	cf 91       	pop	r28
    374e:	1f 91       	pop	r17
    3750:	0f 91       	pop	r16
    3752:	08 95       	ret

00003754 <__ultoa_invert>:
    3754:	fa 01       	movw	r30, r20
    3756:	aa 27       	eor	r26, r26
    3758:	28 30       	cpi	r18, 0x08	; 8
    375a:	51 f1       	breq	.+84     	; 0x37b0 <__ultoa_invert+0x5c>
    375c:	20 31       	cpi	r18, 0x10	; 16
    375e:	81 f1       	breq	.+96     	; 0x37c0 <__ultoa_invert+0x6c>
    3760:	e8 94       	clt
    3762:	6f 93       	push	r22
    3764:	6e 7f       	andi	r22, 0xFE	; 254
    3766:	6e 5f       	subi	r22, 0xFE	; 254
    3768:	7f 4f       	sbci	r23, 0xFF	; 255
    376a:	8f 4f       	sbci	r24, 0xFF	; 255
    376c:	9f 4f       	sbci	r25, 0xFF	; 255
    376e:	af 4f       	sbci	r26, 0xFF	; 255
    3770:	b1 e0       	ldi	r27, 0x01	; 1
    3772:	3e d0       	rcall	.+124    	; 0x37f0 <__ultoa_invert+0x9c>
    3774:	b4 e0       	ldi	r27, 0x04	; 4
    3776:	3c d0       	rcall	.+120    	; 0x37f0 <__ultoa_invert+0x9c>
    3778:	67 0f       	add	r22, r23
    377a:	78 1f       	adc	r23, r24
    377c:	89 1f       	adc	r24, r25
    377e:	9a 1f       	adc	r25, r26
    3780:	a1 1d       	adc	r26, r1
    3782:	68 0f       	add	r22, r24
    3784:	79 1f       	adc	r23, r25
    3786:	8a 1f       	adc	r24, r26
    3788:	91 1d       	adc	r25, r1
    378a:	a1 1d       	adc	r26, r1
    378c:	6a 0f       	add	r22, r26
    378e:	71 1d       	adc	r23, r1
    3790:	81 1d       	adc	r24, r1
    3792:	91 1d       	adc	r25, r1
    3794:	a1 1d       	adc	r26, r1
    3796:	20 d0       	rcall	.+64     	; 0x37d8 <__ultoa_invert+0x84>
    3798:	09 f4       	brne	.+2      	; 0x379c <__ultoa_invert+0x48>
    379a:	68 94       	set
    379c:	3f 91       	pop	r19
    379e:	2a e0       	ldi	r18, 0x0A	; 10
    37a0:	26 9f       	mul	r18, r22
    37a2:	11 24       	eor	r1, r1
    37a4:	30 19       	sub	r19, r0
    37a6:	30 5d       	subi	r19, 0xD0	; 208
    37a8:	31 93       	st	Z+, r19
    37aa:	de f6       	brtc	.-74     	; 0x3762 <__ultoa_invert+0xe>
    37ac:	cf 01       	movw	r24, r30
    37ae:	08 95       	ret
    37b0:	46 2f       	mov	r20, r22
    37b2:	47 70       	andi	r20, 0x07	; 7
    37b4:	40 5d       	subi	r20, 0xD0	; 208
    37b6:	41 93       	st	Z+, r20
    37b8:	b3 e0       	ldi	r27, 0x03	; 3
    37ba:	0f d0       	rcall	.+30     	; 0x37da <__ultoa_invert+0x86>
    37bc:	c9 f7       	brne	.-14     	; 0x37b0 <__ultoa_invert+0x5c>
    37be:	f6 cf       	rjmp	.-20     	; 0x37ac <__ultoa_invert+0x58>
    37c0:	46 2f       	mov	r20, r22
    37c2:	4f 70       	andi	r20, 0x0F	; 15
    37c4:	40 5d       	subi	r20, 0xD0	; 208
    37c6:	4a 33       	cpi	r20, 0x3A	; 58
    37c8:	18 f0       	brcs	.+6      	; 0x37d0 <__ultoa_invert+0x7c>
    37ca:	49 5d       	subi	r20, 0xD9	; 217
    37cc:	31 fd       	sbrc	r19, 1
    37ce:	40 52       	subi	r20, 0x20	; 32
    37d0:	41 93       	st	Z+, r20
    37d2:	02 d0       	rcall	.+4      	; 0x37d8 <__ultoa_invert+0x84>
    37d4:	a9 f7       	brne	.-22     	; 0x37c0 <__ultoa_invert+0x6c>
    37d6:	ea cf       	rjmp	.-44     	; 0x37ac <__ultoa_invert+0x58>
    37d8:	b4 e0       	ldi	r27, 0x04	; 4
    37da:	a6 95       	lsr	r26
    37dc:	97 95       	ror	r25
    37de:	87 95       	ror	r24
    37e0:	77 95       	ror	r23
    37e2:	67 95       	ror	r22
    37e4:	ba 95       	dec	r27
    37e6:	c9 f7       	brne	.-14     	; 0x37da <__ultoa_invert+0x86>
    37e8:	00 97       	sbiw	r24, 0x00	; 0
    37ea:	61 05       	cpc	r22, r1
    37ec:	71 05       	cpc	r23, r1
    37ee:	08 95       	ret
    37f0:	9b 01       	movw	r18, r22
    37f2:	ac 01       	movw	r20, r24
    37f4:	0a 2e       	mov	r0, r26
    37f6:	06 94       	lsr	r0
    37f8:	57 95       	ror	r21
    37fa:	47 95       	ror	r20
    37fc:	37 95       	ror	r19
    37fe:	27 95       	ror	r18
    3800:	ba 95       	dec	r27
    3802:	c9 f7       	brne	.-14     	; 0x37f6 <__ultoa_invert+0xa2>
    3804:	62 0f       	add	r22, r18
    3806:	73 1f       	adc	r23, r19
    3808:	84 1f       	adc	r24, r20
    380a:	95 1f       	adc	r25, r21
    380c:	a0 1d       	adc	r26, r0
    380e:	08 95       	ret

00003810 <__prologue_saves__>:
    3810:	2f 92       	push	r2
    3812:	3f 92       	push	r3
    3814:	4f 92       	push	r4
    3816:	5f 92       	push	r5
    3818:	6f 92       	push	r6
    381a:	7f 92       	push	r7
    381c:	8f 92       	push	r8
    381e:	9f 92       	push	r9
    3820:	af 92       	push	r10
    3822:	bf 92       	push	r11
    3824:	cf 92       	push	r12
    3826:	df 92       	push	r13
    3828:	ef 92       	push	r14
    382a:	ff 92       	push	r15
    382c:	0f 93       	push	r16
    382e:	1f 93       	push	r17
    3830:	cf 93       	push	r28
    3832:	df 93       	push	r29
    3834:	cd b7       	in	r28, 0x3d	; 61
    3836:	de b7       	in	r29, 0x3e	; 62
    3838:	ca 1b       	sub	r28, r26
    383a:	db 0b       	sbc	r29, r27
    383c:	0f b6       	in	r0, 0x3f	; 63
    383e:	f8 94       	cli
    3840:	de bf       	out	0x3e, r29	; 62
    3842:	0f be       	out	0x3f, r0	; 63
    3844:	cd bf       	out	0x3d, r28	; 61
    3846:	09 94       	ijmp

00003848 <__epilogue_restores__>:
    3848:	2a 88       	ldd	r2, Y+18	; 0x12
    384a:	39 88       	ldd	r3, Y+17	; 0x11
    384c:	48 88       	ldd	r4, Y+16	; 0x10
    384e:	5f 84       	ldd	r5, Y+15	; 0x0f
    3850:	6e 84       	ldd	r6, Y+14	; 0x0e
    3852:	7d 84       	ldd	r7, Y+13	; 0x0d
    3854:	8c 84       	ldd	r8, Y+12	; 0x0c
    3856:	9b 84       	ldd	r9, Y+11	; 0x0b
    3858:	aa 84       	ldd	r10, Y+10	; 0x0a
    385a:	b9 84       	ldd	r11, Y+9	; 0x09
    385c:	c8 84       	ldd	r12, Y+8	; 0x08
    385e:	df 80       	ldd	r13, Y+7	; 0x07
    3860:	ee 80       	ldd	r14, Y+6	; 0x06
    3862:	fd 80       	ldd	r15, Y+5	; 0x05
    3864:	0c 81       	ldd	r16, Y+4	; 0x04
    3866:	1b 81       	ldd	r17, Y+3	; 0x03
    3868:	aa 81       	ldd	r26, Y+2	; 0x02
    386a:	b9 81       	ldd	r27, Y+1	; 0x01
    386c:	ce 0f       	add	r28, r30
    386e:	d1 1d       	adc	r29, r1
    3870:	0f b6       	in	r0, 0x3f	; 63
    3872:	f8 94       	cli
    3874:	de bf       	out	0x3e, r29	; 62
    3876:	0f be       	out	0x3f, r0	; 63
    3878:	cd bf       	out	0x3d, r28	; 61
    387a:	ed 01       	movw	r28, r26
    387c:	08 95       	ret

0000387e <_exit>:
    387e:	f8 94       	cli

00003880 <__stop_program>:
    3880:	ff cf       	rjmp	.-2      	; 0x3880 <__stop_program>
